(dp0
S'right'
p1
(lp2
(I286
I56
I76
I219
I560
I605
I279
I120
tp3
a(I236
I66
I77
I222
I646
I638
I300
I120
tp4
a(I192
I67
I78
I194
I603
I575
I205
I91
tp5
a(I187
I62
I69
I195
I625
I665
I235
I85
tp6
a(I187
I60
I68
I184
I623
I689
I220
I85
tp7
a(I174
I63
I68
I166
I596
I706
I242
I107
tp8
a(I196
I64
I76
I183
I598
I675
I241
I125
tp9
a(I227
I54
I64
I168
I603
I649
I250
I126
tp10
a(I229
I59
I70
I175
I596
I587
I232
I138
tp11
a(I234
I59
I77
I177
I593
I598
I241
I140
tp12
a(I225
I61
I78
I180
I627
I546
I250
I120
tp13
a(I211
I50
I63
I122
I482
I539
I233
I107
tp14
a(I182
I51
I66
I128
I485
I546
I226
I107
tp15
a(I172
I51
I64
I120
I518
I549
I238
I86
tp16
a(I175
I53
I59
I122
I497
I554
I234
I83
tp17
a(I223
I53
I57
I128
I432
I620
I209
I92
tp18
a(I228
I53
I60
I141
I490
I597
I195
I87
tp19
a(I235
I55
I59
I152
I501
I631
I200
I91
tp20
a(I276
I54
I57
I154
I457
I624
I168
I104
tp21
a(I265
I55
I62
I171
I580
I642
I204
I107
tp22
a(I241
I53
I66
I212
I665
I584
I197
I106
tp23
a(I257
I72
I67
I211
I633
I562
I192
I104
tp24
a(I307
I74
I67
I210
I611
I530
I185
I106
tp25
a(I375
I76
I72
I210
I657
I564
I205
I122
tp26
a(I387
I79
I64
I197
I605
I653
I165
I133
tp27
a(I393
I77
I63
I151
I515
I676
I176
I134
tp28
a(I376
I64
I60
I145
I495
I657
I179
I141
tp29
a(I348
I62
I71
I190
I553
I672
I178
I137
tp30
a(I240
I59
I72
I181
I496
I632
I155
I116
tp31
a(I231
I53
I74
I216
I590
I473
I180
I104
tp32
a(I210
I57
I72
I221
I613
I530
I165
I98
tp33
a(I228
I53
I74
I219
I636
I548
I168
I111
tp34
a(I215
I49
I66
I175
I589
I517
I174
I118
tp35
a(I259
I47
I62
I194
I645
I540
I188
I117
tp36
a(I250
I48
I65
I150
I518
I530
I161
I117
tp37
a(I267
I48
I66
I138
I483
I582
I169
I126
tp38
a(I277
I54
I70
I172
I527
I565
I162
I115
tp39
a(I268
I57
I70
I170
I583
I596
I163
I104
tp40
a(I216
I60
I72
I156
I515
I595
I146
I101
tp41
a(I233
I62
I78
I189
I512
I608
I145
I103
tp42
a(I235
I59
I81
I197
I569
I455
I141
I94
tp43
a(I204
I55
I72
I181
I570
I445
I139
I76
tp44
a(I233
I54
I70
I199
I546
I451
I120
I76
tp45
a(I233
I51
I67
I205
I588
I545
I131
I84
tp46
a(I217
I45
I52
I191
I619
I568
I131
I72
tp47
a(I241
I51
I48
I192
I578
I572
I134
I88
tp48
a(I241
I53
I55
I199
I634
I666
I139
I92
tp49
a(I223
I54
I58
I196
I609
I634
I137
I106
tp50
a(I234
I58
I60
I196
I640
I558
I164
I104
tp51
a(I238
I61
I72
I204
I668
I529
I178
I109
tp52
a(I184
I59
I74
I204
I686
I566
I174
I98
tp53
a(I185
I54
I72
I185
I564
I454
I171
I96
tp54
a(I202
I60
I76
I190
I667
I500
I188
I87
tp55
a(I180
I61
I77
I176
I621
I490
I161
I85
tp56
a(I172
I64
I79
I170
I599
I512
I152
I79
tp57
a(I201
I63
I86
I207
I654
I484
I168
I78
tp58
a(I197
I66
I86
I219
I690
I526
I166
I76
tp59
a(I195
I62
I84
I223
I606
I532
I150
I87
tp60
a(I216
I54
I80
I230
I597
I525
I144
I84
tp61
a(I220
I50
I74
I222
I547
I539
I142
I83
tp62
a(I217
I56
I66
I187
I495
I599
I166
I89
tp63
a(I221
I57
I63
I169
I495
I564
I170
I91
tp64
a(I195
I55
I68
I158
I470
I546
I191
I77
tp65
a(I207
I62
I72
I147
I459
I559
I198
I75
tp66
a(I243
I67
I76
I141
I503
I564
I196
I91
tp67
a(I240
I63
I76
I137
I510
I544
I170
I100
tp68
a(I257
I62
I76
I140
I508
I538
I164
I100
tp69
a(I252
I68
I73
I113
I481
I552
I164
I106
tp70
a(I226
I62
I69
I129
I520
I539
I152
I108
tp71
a(I182
I57
I62
I121
I490
I505
I146
I100
tp72
a(I206
I54
I60
I150
I480
I488
I173
I88
tp73
a(I189
I51
I58
I156
I433
I488
I180
I92
tp74
a(I189
I44
I54
I159
I438
I438
I167
I79
tp75
a(I202
I48
I58
I148
I413
I401
I176
I82
tp76
a(I224
I49
I61
I162
I397
I413
I191
I80
tp77
a(I184
I57
I63
I139
I351
I369
I152
I77
tp78
a(I173
I56
I66
I128
I330
I406
I150
I69
tp79
a(I289
I58
I65
I132
I385
I492
I163
I99
tp80
a(I293
I59
I67
I136
I350
I542
I162
I103
tp81
a(I291
I58
I62
I168
I498
I531
I143
I107
tp82
a(I307
I65
I73
I195
I570
I553
I197
I115
tp83
a(I315
I68
I72
I211
I624
I561
I198
I119
tp84
a(I238
I67
I70
I222
I666
I492
I180
I102
tp85
a(I249
I64
I65
I222
I670
I464
I176
I101
tp86
a(I250
I65
I71
I191
I557
I493
I188
I100
tp87
a(I223
I50
I60
I178
I462
I449
I148
I92
tp88
a(I244
I47
I66
I163
I406
I390
I144
I87
tp89
a(I232
I43
I68
I144
I280
I511
I150
I80
tp90
a(I216
I41
I71
I158
I282
I506
I144
I75
tp91
a(I227
I45
I68
I167
I376
I462
I147
I79
tp92
a(I239
I45
I65
I159
I429
I477
I130
I73
tp93
a(I211
I46
I59
I163
I449
I510
I145
I76
tp94
a(I220
I45
I57
I161
I467
I474
I139
I79
tp95
a(I201
I47
I54
I145
I473
I472
I144
I77
tp96
a(I171
I53
I64
I132
I432
I529
I203
I69
tp97
a(I179
I51
I65
I125
I458
I601
I211
I73
tp98
a(I206
I56
I69
I117
I450
I625
I218
I75
tp99
a(I191
I67
I72
I126
I432
I584
I223
I76
tp100
a(I229
I64
I77
I155
I562
I611
I264
I88
tp101
a(I231
I57
I64
I152
I581
I580
I215
I91
tp102
a(I210
I60
I66
I145
I578
I566
I214
I88
tp103
a(I184
I59
I66
I157
I646
I557
I214
I85
tp104
a(I191
I53
I70
I180
I727
I556
I210
I86
tp105
a(I143
I53
I66
I176
I686
I541
I159
I70
tp106
a(I137
I51
I64
I182
I667
I559
I163
I60
tp107
a(I184
I52
I64
I182
I650
I493
I160
I65
tp108
a(I201
I52
I60
I185
I583
I515
I140
I65
tp109
a(I192
I50
I52
I163
I507
I545
I139
I68
tp110
a(I208
I53
I51
I147
I454
I547
I153
I72
tp111
a(I252
I55
I51
I145
I453
I575
I149
I93
tp112
a(I231
I52
I49
I163
I497
I568
I141
I93
tp113
a(I241
I52
I50
I159
I505
I569
I163
I93
tp114
a(I240
I51
I54
I173
I471
I589
I172
I90
tp115
a(I303
I56
I50
I165
I445
I629
I154
I114
tp116
a(I285
I56
I53
I163
I440
I602
I188
I105
tp117
a(I294
I56
I53
I141
I343
I648
I195
I110
tp118
a(I284
I51
I54
I153
I441
I623
I190
I115
tp119
a(I310
I49
I49
I125
I455
I595
I179
I121
tp120
a(I242
I41
I69
I126
I444
I545
I180
I96
tp121
a(I223
I47
I81
I121
I451
I559
I143
I90
tp122
a(I224
I46
I86
I130
I447
I569
I156
I82
tp123
a(I228
I51
I86
I106
I330
I557
I134
I83
tp124
a(I217
I58
I96
I121
I402
I498
I133
I87
tp125
a(I218
I56
I86
I127
I400
I500
I163
I88
tp126
a(I259
I50
I74
I128
I392
I545
I174
I87
tp127
a(I243
I53
I72
I146
I419
I615
I166
I88
tp128
a(I226
I50
I66
I139
I415
I614
I171
I77
tp129
a(I238
I42
I48
I129
I317
I667
I188
I65
tp130
a(I252
I49
I44
I140
I350
I696
I166
I76
tp131
a(I200
I50
I43
I140
I330
I645
I153
I73
tp132
a(I236
I47
I39
I153
I455
I586
I153
I104
tp133
a(I249
I51
I46
I157
I470
I596
I144
I105
tp134
a(I208
I56
I49
I175
I562
I555
I143
I99
tp135
a(I207
I51
I48
I171
I545
I495
I153
I92
tp136
a(I228
I53
I49
I174
I579
I527
I147
I102
tp137
a(I229
I53
I50
I138
I499
I498
I138
I77
tp138
a(I230
I49
I47
I146
I479
I455
I145
I79
tp139
a(I239
I49
I46
I122
I390
I531
I127
I82
tp140
a(I230
I61
I72
I154
I380
I530
I166
I97
tp141
a(I248
I64
I73
I161
I406
I528
I182
I95
tp142
a(I224
I66
I75
I164
I409
I616
I207
I96
tp143
a(I237
I68
I75
I171
I448
I634
I206
I101
tp144
a(I231
I63
I75
I177
I466
I573
I207
I108
tp145
a(I251
I60
I64
I163
I465
I579
I171
I97
tp146
a(I225
I53
I62
I161
I418
I573
I196
I91
tp147
a(I238
I58
I61
I161
I379
I485
I172
I84
tp148
a(I259
I56
I62
I174
I448
I508
I188
I93
tp149
a(I268
I65
I72
I177
I437
I503
I199
I84
tp150
a(I251
I66
I64
I159
I448
I547
I205
I82
tp151
a(I268
I69
I67
I152
I451
I513
I166
I93
tp152
a(I248
I67
I73
I154
I542
I680
I170
I99
tp153
a(I209
I70
I70
I119
I472
I679
I167
I89
tp154
a(I237
I63
I59
I110
I493
I712
I160
I93
tp155
a(I258
I39
I39
I132
I335
I586
I138
I110
tp156
a(I231
I40
I42
I116
I314
I665
I140
I96
tp157
a(I227
I38
I48
I122
I330
I591
I140
I87
tp158
a(I226
I48
I60
I169
I346
I585
I135
I95
tp159
a(I175
I49
I65
I195
I411
I594
I129
I103
tp160
a(I165
I49
I73
I192
I450
I540
I130
I119
tp161
a(I205
I48
I79
I214
I476
I476
I139
I121
tp162
a(I199
I51
I81
I217
I525
I549
I143
I124
tp163
a(I184
I45
I75
I203
I503
I507
I151
I127
tp164
a(I174
I51
I81
I189
I498
I591
I188
I121
tp165
a(I181
I49
I81
I190
I485
I663
I202
I109
tp166
a(I156
I50
I77
I172
I447
I669
I204
I103
tp167
a(I142
I46
I76
I166
I391
I638
I203
I104
tp168
a(I176
I48
I72
I138
I374
I636
I203
I111
tp169
a(I183
I41
I61
I124
I344
I590
I165
I109
tp170
a(I195
I39
I52
I113
I330
I512
I144
I100
tp171
a(I196
I40
I48
I137
I511
I475
I143
I138
tp172
a(I214
I42
I42
I142
I539
I463
I163
I142
tp173
a(I204
I40
I44
I142
I562
I489
I160
I144
tp174
a(I201
I41
I43
I152
I576
I482
I162
I137
tp175
a(I190
I40
I49
I159
I586
I474
I170
I144
tp176
a(I189
I35
I52
I142
I483
I504
I161
I116
tp177
a(I169
I38
I56
I153
I451
I625
I154
I109
tp178
a(I190
I42
I58
I148
I424
I651
I145
I92
tp179
a(I201
I41
I58
I144
I394
I662
I142
I101
tp180
a(I207
I53
I68
I146
I428
I707
I160
I135
tp181
a(I258
I64
I68
I134
I397
I674
I157
I150
tp182
a(I296
I68
I73
I173
I471
I642
I170
I152
tp183
a(I270
I66
I72
I178
I443
I602
I176
I153
tp184
a(I269
I66
I70
I174
I429
I596
I175
I147
tp185
a(I269
I69
I70
I169
I466
I588
I193
I117
tp186
a(I211
I61
I68
I172
I448
I604
I201
I92
tp187
a(I186
I55
I62
I134
I445
I537
I178
I91
tp188
a(I221
I56
I64
I154
I516
I547
I190
I93
tp189
a(I216
I54
I64
I153
I512
I503
I192
I92
tp190
a(I215
I45
I52
I166
I512
I540
I156
I84
tp191
a(I241
I42
I53
I163
I521
I540
I151
I117
tp192
a(I244
I39
I50
I144
I458
I539
I177
I127
tp193
a(I210
I37
I53
I157
I486
I635
I180
I128
tp194
a(I209
I42
I61
I170
I495
I670
I192
I129
tp195
a(I237
I35
I57
I181
I467
I622
I184
I127
tp196
a(I207
I37
I55
I179
I470
I642
I182
I92
tp197
a(I177
I36
I58
I189
I469
I663
I157
I73
tp198
a(I176
I41
I56
I163
I379
I576
I137
I64
tp199
a(I216
I36
I47
I151
I375
I555
I118
I64
tp200
a(I227
I36
I51
I129
I368
I558
I146
I99
tp201
a(I223
I36
I58
I138
I390
I550
I144
I110
tp202
a(I222
I40
I53
I139
I448
I650
I157
I115
tp203
a(I232
I36
I48
I136
I473
I681
I157
I115
tp204
a(I234
I36
I47
I147
I500
I657
I165
I121
tp205
a(I179
I39
I48
I136
I485
I630
I144
I104
tp206
a(I190
I38
I43
I143
I474
I664
I151
I94
tp207
a(I198
I37
I49
I136
I406
I538
I151
I87
tp208
a(I233
I45
I57
I133
I397
I564
I143
I99
tp209
a(I192
I45
I59
I124
I399
I661
I140
I89
tp210
a(I191
I43
I61
I136
I374
I674
I141
I74
tp211
a(I223
I42
I58
I138
I400
I630
I150
I99
tp212
a(I237
I45
I55
I133
I402
I615
I139
I100
tp213
a(I213
I38
I50
I146
I425
I538
I136
I94
tp214
a(I259
I38
I48
I155
I402
I451
I140
I116
tp215
a(I300
I41
I41
I151
I404
I488
I150
I126
tp216
a(I284
I55
I48
I135
I366
I566
I176
I108
tp217
a(I295
I50
I49
I142
I430
I586
I183
I117
tp218
a(I294
I52
I54
I144
I392
I625
I185
I127
tp219
a(I261
I55
I57
I139
I385
I630
I188
I113
tp220
a(I230
I52
I58
I131
I384
I593
I183
I103
tp221
a(I213
I49
I54
I127
I382
I505
I142
I105
tp222
a(I197
I49
I59
I136
I359
I489
I154
I100
tp223
a(I200
I47
I52
I122
I495
I479
I151
I90
tp224
a(I207
I45
I49
I111
I487
I506
I175
I90
tp225
a(I192
I45
I56
I128
I502
I555
I173
I94
tp226
a(I189
I34
I57
I130
I527
I558
I176
I106
tp227
a(I163
I38
I64
I132
I541
I549
I154
I103
tp228
a(I210
I35
I69
I151
I408
I557
I163
I110
tp229
a(I205
I37
I70
I168
I423
I531
I149
I108
tp230
a(I208
I40
I68
I159
I408
I491
I160
I112
tp231
a(I211
I39
I67
I164
I379
I507
I157
I96
tp232
a(I219
I36
I57
I162
I367
I530
I156
I117
tp233
a(I172
I37
I53
I152
I382
I567
I163
I107
tp234
a(I185
I42
I67
I171
I455
I604
I154
I106
tp235
a(I260
I42
I62
I174
I448
I583
I140
I117
tp236
a(I264
I46
I64
I179
I513
I608
I138
I120
tp237
a(I256
I45
I61
I172
I481
I666
I136
I95
tp238
a(I243
I44
I61
I176
I541
I605
I165
I104
tp239
a(I264
I39
I44
I159
I496
I546
I150
I99
tp240
a(I215
I35
I53
I154
I586
I605
I186
I81
tp241
a(I214
I35
I54
I168
I556
I551
I191
I80
tp242
a(I214
I48
I70
I163
I571
I433
I219
I83
tp243
a(I278
I53
I92
I231
I586
I526
I187
I72
tp244
a(I253
I55
I96
I229
I571
I555
I189
I78
tp245
a(I226
I54
I92
I242
I486
I548
I160
I106
tp246
a(I220
I56
I99
I247
I459
I610
I162
I109
tp247
a(I226
I50
I89
I252
I450
I626
I121
I120
tp248
a(I213
I46
I70
I187
I361
I615
I116
I136
tp249
a(I220
I46
I70
I181
I408
I621
I122
I140
tp250
a(I248
I47
I73
I165
I415
I584
I127
I122
tp251
a(I300
I47
I63
I132
I413
I562
I123
I143
tp252
a(I301
I46
I64
I132
I408
I580
I131
I132
tp253
a(I262
I48
I65
I121
I382
I626
I132
I119
tp254
a(I260
I45
I57
I130
I358
I579
I151
I112
tp255
a(I250
I46
I55
I122
I333
I648
I184
I112
tp256
a(I210
I47
I54
I116
I331
I635
I188
I86
tp257
a(I208
I51
I68
I173
I402
I621
I184
I105
tp258
a(I202
I56
I75
I184
I415
I516
I185
I115
tp259
a(I189
I56
I75
I172
I402
I615
I189
I122
tp260
a(I191
I57
I83
I195
I461
I522
I149
I118
tp261
a(I174
I55
I87
I205
I492
I496
I150
I109
tp262
a(I196
I52
I79
I158
I438
I535
I158
I109
tp263
a(I205
I46
I73
I159
I458
I539
I184
I94
tp264
a(I242
I44
I71
I160
I450
I456
I166
I84
tp265
a(I240
I46
I68
I162
I397
I555
I162
I97
tp266
a(I240
I45
I67
I172
I439
I600
I162
I100
tp267
a(I253
I42
I65
I183
I444
I602
I171
I100
tp268
a(I246
I45
I64
I172
I407
I616
I151
I108
tp269
a(I210
I44
I63
I173
I396
I726
I142
I115
tp270
a(I205
I42
I58
I163
I477
I680
I145
I107
tp271
a(I234
I44
I57
I157
I424
I668
I134
I111
tp272
a(I195
I44
I52
I138
I399
I646
I128
I112
tp273
a(I192
I39
I50
I157
I411
I639
I113
I102
tp274
a(I191
I45
I55
I155
I406
I549
I144
I123
tp275
a(I212
I43
I55
I153
I389
I535
I146
I135
tp276
a(I231
I44
I56
I144
I369
I495
I160
I142
tp277
a(I241
I45
I58
I150
I408
I549
I157
I131
tp278
a(I246
I45
I59
I127
I398
I567
I185
I130
tp279
a(I254
I43
I63
I137
I413
I541
I166
I112
tp280
a(I230
I47
I63
I133
I329
I599
I167
I100
tp281
a(I170
I46
I57
I160
I420
I624
I172
I102
tp282
a(I160
I45
I58
I167
I453
I575
I163
I105
tp283
a(I177
I46
I62
I172
I512
I554
I140
I106
tp284
a(I164
I43
I55
I165
I505
I547
I137
I95
tp285
a(I160
I43
I59
I177
I526
I549
I139
I88
tp286
a(I198
I44
I65
I174
I488
I526
I136
I96
tp287
a(I233
I43
I66
I169
I506
I508
I145
I100
tp288
a(I219
I43
I63
I179
I463
I486
I138
I106
tp289
a(I216
I47
I69
I189
I502
I470
I137
I111
tp290
a(I253
I46
I68
I182
I483
I467
I133
I124
tp291
a(I233
I44
I66
I172
I464
I500
I142
I125
tp292
a(I196
I47
I64
I167
I390
I517
I134
I125
tp293
a(I225
I52
I63
I156
I430
I602
I133
I125
tp294
a(I241
I55
I65
I151
I425
I641
I155
I123
tp295
a(I212
I60
I63
I153
I488
I563
I153
I124
tp296
a(I203
I60
I60
I139
I525
I552
I128
I102
tp297
a(I216
I59
I61
I141
I549
I555
I133
I95
tp298
a(I185
I56
I63
I140
I527
I488
I136
I89
tp299
a(I200
I52
I55
I140
I509
I491
I115
I94
tp300
a(I202
I50
I67
I162
I449
I544
I143
I82
tp301
a(I209
I50
I68
I172
I401
I541
I158
I86
tp302
a(I199
I51
I66
I167
I369
I586
I191
I84
tp303
a(I199
I55
I77
I172
I394
I613
I207
I86
tp304
a(I204
I58
I80
I173
I393
I640
I218
I92
tp305
a(I189
I55
I71
I149
I422
I639
I205
I99
tp306
a(I177
I54
I69
I135
I403
I641
I211
I99
tp307
a(I205
I51
I69
I151
I394
I626
I185
I106
tp308
a(I230
I48
I55
I142
I367
I594
I166
I113
tp309
a(I220
I53
I72
I187
I443
I720
I191
I135
tp310
a(I203
I48
I75
I203
I519
I719
I195
I131
tp311
a(I227
I54
I69
I204
I481
I714
I160
I108
tp312
a(I258
I59
I70
I175
I407
I700
I164
I118
tp313
a(I274
I61
I71
I173
I560
I627
I157
I126
tp314
a(I298
I61
I70
I165
I593
I550
I148
I133
tp315
a(I304
I65
I68
I153
I554
I602
I172
I125
tp316
a(I283
I58
I64
I140
I561
I551
I171
I127
tp317
a(I362
I65
I61
I142
I614
I632
I165
I125
tp318
a(I389
I65
I54
I141
I457
I666
I161
I141
tp319
a(I360
I69
I59
I152
I473
I746
I163
I134
tp320
a(I352
I69
I59
I147
I511
I707
I142
I129
tp321
a(I347
I70
I61
I149
I603
I775
I142
I133
tp322
a(I258
I62
I62
I144
I572
I747
I157
I126
tp323
a(I191
I61
I68
I136
I581
I756
I172
I108
tp324
a(I177
I57
I72
I147
I586
I688
I171
I102
tp325
a(I180
I51
I71
I146
I551
I695
I167
I101
tp326
a(I186
I56
I82
I170
I592
I644
I184
I96
tp327
a(I137
I49
I82
I177
I583
I597
I178
I93
tp328
a(I146
I46
I80
I181
I592
I544
I173
I96
tp329
a(I177
I42
I66
I183
I570
I576
I194
I110
tp330
a(I188
I56
I72
I196
I572
I608
I215
I122
tp331
a(I179
I55
I57
I182
I479
I622
I214
I124
tp332
a(I195
I55
I55
I176
I483
I611
I212
I125
tp333
a(I245
I57
I62
I185
I592
I625
I211
I128
tp334
a(I259
I60
I66
I156
I569
I615
I203
I118
tp335
a(I249
I45
I58
I141
I571
I566
I190
I110
tp336
a(I247
I43
I65
I138
I535
I567
I179
I110
tp337
a(I255
I48
I69
I151
I523
I606
I169
I124
tp338
a(I213
I53
I64
I141
I391
I562
I163
I127
tp339
a(I176
I55
I66
I146
I384
I582
I146
I130
tp340
a(I309
I59
I66
I150
I354
I631
I172
I144
tp341
a(I330
I59
I67
I153
I343
I569
I172
I142
tp342
a(I326
I58
I65
I140
I331
I587
I191
I141
tp343
a(I331
I56
I68
I138
I324
I593
I183
I135
tp344
a(I337
I55
I67
I150
I352
I578
I179
I133
tp345
a(I230
I62
I71
I154
I403
I550
I146
I127
tp346
a(I216
I60
I71
I171
I374
I565
I148
I129
tp347
a(I264
I59
I72
I182
I479
I538
I152
I135
tp348
a(I248
I57
I67
I202
I547
I556
I155
I146
tp349
a(I262
I57
I65
I198
I550
I518
I169
I152
tp350
a(I258
I51
I63
I191
I530
I525
I171
I149
tp351
a(I245
I53
I64
I195
I600
I523
I164
I147
tp352
a(I184
I54
I67
I191
I523
I610
I157
I129
tp353
a(I191
I52
I69
I173
I449
I623
I165
I101
tp354
a(I171
I50
I68
I164
I429
I667
I201
I100
tp355
a(I183
I47
I68
I170
I443
I708
I202
I95
tp356
a(I245
I43
I58
I146
I377
I789
I203
I112
tp357
a(I265
I42
I51
I141
I400
I731
I196
I119
tp358
a(I288
I44
I57
I138
I392
I753
I201
I130
tp359
a(I293
I46
I57
I131
I396
I695
I160
I129
tp360
a(I292
I46
I57
I118
I407
I681
I149
I123
tp361
a(I239
I51
I61
I105
I378
I573
I146
I105
tp362
a(I239
I55
I62
I107
I375
I522
I133
I107
tp363
a(I233
I60
I58
I100
I382
I509
I149
I109
tp364
a(I265
I60
I68
I156
I488
I582
I151
I126
tp365
a(I276
I63
I73
I164
I457
I611
I152
I128
tp366
a(I280
I66
I75
I169
I462
I626
I160
I130
tp367
a(I258
I61
I77
I176
I466
I681
I201
I125
tp368
a(I228
I60
I80
I184
I483
I709
I200
I115
tp369
a(I180
I68
I77
I147
I391
I740
I199
I89
tp370
a(I172
I71
I75
I146
I413
I724
I198
I87
tp371
a(I169
I72
I83
I155
I505
I709
I197
I93
tp372
a(I246
I82
I87
I158
I498
I699
I176
I104
tp373
a(I262
I80
I81
I157
I474
I659
I154
I109
tp374
a(I254
I70
I77
I156
I455
I581
I181
I102
tp375
a(I258
I68
I71
I154
I421
I515
I184
I111
tp376
a(I297
I61
I58
I137
I307
I547
I197
I119
tp377
a(I255
I45
I45
I128
I341
I492
I182
I108
tp378
a(I233
I41
I42
I112
I374
I499
I183
I104
tp379
a(I231
I45
I43
I109
I478
I526
I149
I125
tp380
a(I229
I44
I42
I102
I493
I524
I191
I124
tp381
a(I192
I45
I41
I109
I484
I558
I167
I113
tp382
a(I167
I47
I39
I97
I466
I575
I171
I109
tp383
a(I166
I45
I36
I100
I486
I530
I166
I104
tp384
a(I215
I41
I36
I105
I388
I516
I174
I96
tp385
a(I278
I46
I50
I120
I416
I542
I133
I110
tp386
a(I271
I52
I69
I163
I418
I523
I147
I112
tp387
a(I292
I51
I74
I171
I526
I517
I168
I116
tp388
a(I295
I52
I82
I192
I558
I556
I171
I117
tp389
a(I269
I55
I87
I204
I549
I558
I178
I119
tp390
a(I214
I50
I82
I216
I580
I512
I178
I106
tp391
a(I226
I48
I67
I186
I591
I531
I185
I103
tp392
a(I192
I47
I68
I188
I490
I573
I166
I98
tp393
a(I236
I56
I65
I171
I426
I600
I169
I105
tp394
a(I250
I55
I66
I183
I446
I614
I172
I95
tp395
a(I222
I62
I86
I226
I502
I636
I187
I90
tp396
a(I224
I59
I88
I258
I565
I589
I183
I90
tp397
a(I249
I62
I85
I265
I559
I580
I185
I92
tp398
a(I234
I55
I82
I262
I547
I522
I177
I110
tp399
a(I211
I60
I79
I253
I531
I498
I158
I106
tp400
a(I214
I52
I67
I211
I418
I550
I133
I105
tp401
a(I196
I50
I64
I167
I313
I612
I126
I109
tp402
a(I252
I56
I65
I145
I347
I587
I142
I113
tp403
a(I247
I59
I73
I161
I349
I704
I156
I92
tp404
a(I293
I56
I73
I148
I398
I724
I173
I94
tp405
a(I288
I56
I68
I135
I416
I777
I182
I96
tp406
a(I293
I59
I74
I146
I417
I742
I175
I86
tp407
a(I231
I51
I74
I168
I384
I765
I163
I78
tp408
a(I247
I46
I75
I159
I396
I648
I146
I80
tp409
a(I208
I46
I74
I154
I403
I673
I127
I76
tp410
a(I207
I48
I76
I219
I370
I570
I122
I78
tp411
a(I197
I49
I78
I225
I398
I575
I134
I88
tp412
a(I198
I49
I75
I213
I414
I603
I153
I86
tp413
a(I175
I52
I70
I219
I494
I651
I155
I81
tp414
a(I173
I50
I69
I224
I452
I664
I156
I92
tp415
a(I178
I46
I59
I163
I452
I671
I163
I91
tp416
a(I203
I48
I62
I157
I473
I716
I185
I84
tp417
a(I210
I47
I60
I160
I498
I761
I171
I94
tp418
a(I184
I41
I55
I174
I465
I749
I184
I91
tp419
a(I165
I53
I63
I166
I490
I755
I188
I96
tp420
a(I261
I54
I67
I197
I582
I735
I176
I115
tp421
a(I249
I50
I59
I194
I551
I669
I155
I116
tp422
a(I234
I54
I61
I188
I525
I564
I155
I113
tp423
a(I241
I55
I60
I167
I493
I578
I145
I129
tp424
a(I267
I53
I53
I169
I547
I576
I137
I142
tp425
a(I179
I55
I49
I121
I450
I651
I138
I125
tp426
a(I170
I58
I55
I110
I449
I703
I155
I138
tp427
a(I168
I55
I58
I126
I441
I690
I152
I143
tp428
a(I233
I63
I62
I116
I417
I669
I159
I135
tp429
a(I225
I54
I58
I110
I325
I640
I155
I114
tp430
a(I238
I53
I61
I118
I347
I585
I166
I109
tp431
a(I276
I61
I65
I127
I327
I574
I136
I100
tp432
a(I290
I62
I62
I111
I377
I610
I151
I97
tp433
a(I244
I57
I66
I122
I402
I612
I164
I95
tp434
a(I238
I60
I71
I123
I436
I586
I167
I102
tp435
a(I226
I61
I71
I121
I434
I604
I156
I105
tp436
a(I198
I47
I58
I108
I454
I602
I168
I100
tp437
a(I206
I48
I65
I104
I489
I609
I179
I103
tp438
a(I219
I47
I61
I101
I465
I590
I172
I107
tp439
a(I207
I46
I61
I126
I413
I587
I177
I105
tp440
a(I209
I48
I61
I126
I438
I596
I208
I107
tp441
a(I196
I48
I61
I128
I452
I588
I228
I106
tp442
a(I172
I46
I54
I147
I464
I604
I211
I103
tp443
a(I136
I46
I53
I180
I515
I678
I202
I102
tp444
a(I156
I58
I49
I177
I562
I721
I207
I95
tp445
a(I157
I56
I47
I173
I536
I724
I195
I96
tp446
a(I158
I56
I48
I180
I524
I698
I158
I94
tp447
a(I185
I55
I47
I177
I497
I657
I171
I103
tp448
a(I193
I60
I45
I154
I519
I572
I174
I96
tp449
a(I203
I50
I43
I138
I506
I603
I179
I103
tp450
a(I200
I51
I45
I144
I501
I540
I164
I113
tp451
a(I201
I51
I44
I135
I478
I628
I169
I113
tp452
a(I179
I52
I47
I129
I428
I618
I168
I109
tp453
a(I178
I47
I50
I119
I344
I661
I165
I112
tp454
a(I164
I44
I53
I123
I295
I606
I149
I105
tp455
a(I172
I44
I52
I118
I315
I632
I145
I95
tp456
a(I201
I44
I53
I138
I365
I571
I163
I97
tp457
a(I199
I46
I51
I137
I353
I587
I145
I101
tp458
a(I198
I47
I49
I147
I349
I565
I143
I113
tp459
a(I219
I55
I53
I146
I355
I527
I164
I113
tp460
a(I222
I59
I58
I161
I396
I597
I165
I117
tp461
a(I241
I60
I57
I148
I408
I596
I146
I119
tp462
a(I240
I66
I59
I150
I456
I656
I144
I113
tp463
asS'relaxed'
p464
(lp465
(I16
I21
I19
I25
I50
I139
I55
I24
tp466
a(I18
I19
I17
I26
I50
I132
I56
I24
tp467
a(I19
I19
I17
I20
I38
I91
I38
I22
tp468
a(I20
I19
I20
I18
I36
I105
I35
I18
tp469
a(I21
I20
I21
I18
I36
I106
I37
I19
tp470
a(I23
I22
I22
I13
I32
I105
I35
I22
tp471
a(I22
I22
I22
I14
I42
I156
I41
I21
tp472
a(I21
I22
I23
I18
I42
I149
I40
I22
tp473
a(I20
I24
I21
I20
I42
I145
I49
I24
tp474
a(I18
I23
I21
I19
I41
I145
I48
I24
tp475
a(I17
I22
I21
I21
I48
I187
I53
I23
tp476
a(I14
I21
I21
I23
I42
I149
I51
I23
tp477
a(I15
I22
I21
I22
I43
I149
I54
I23
tp478
a(I15
I21
I20
I22
I43
I149
I43
I21
tp479
a(I16
I19
I19
I25
I47
I162
I42
I21
tp480
a(I15
I18
I21
I24
I39
I108
I36
I18
tp481
a(I15
I19
I21
I22
I39
I110
I36
I20
tp482
a(I14
I17
I20
I21
I41
I142
I36
I20
tp483
a(I15
I18
I22
I22
I41
I143
I37
I21
tp484
a(I15
I19
I20
I19
I35
I128
I39
I20
tp485
a(I15
I19
I19
I18
I36
I131
I41
I22
tp486
a(I15
I21
I18
I19
I36
I143
I42
I21
tp487
a(I14
I20
I18
I18
I34
I117
I39
I20
tp488
a(I16
I20
I18
I14
I33
I116
I38
I19
tp489
a(I16
I17
I20
I17
I34
I112
I36
I20
tp490
a(I16
I18
I20
I19
I52
I168
I53
I21
tp491
a(I17
I16
I19
I20
I54
I163
I54
I24
tp492
a(I17
I18
I21
I21
I53
I157
I54
I24
tp493
a(I15
I18
I21
I21
I52
I150
I55
I24
tp494
a(I16
I18
I20
I21
I58
I182
I60
I25
tp495
a(I17
I18
I20
I20
I43
I136
I45
I25
tp496
a(I16
I17
I23
I17
I39
I125
I41
I22
tp497
a(I16
I15
I21
I17
I39
I149
I40
I21
tp498
a(I16
I16
I21
I17
I40
I156
I37
I20
tp499
a(I14
I16
I21
I19
I33
I135
I35
I19
tp500
a(I13
I16
I21
I21
I33
I131
I35
I20
tp501
a(I14
I17
I19
I20
I35
I134
I35
I19
tp502
a(I16
I16
I18
I20
I36
I117
I37
I19
tp503
a(I17
I16
I18
I20
I35
I108
I38
I20
tp504
a(I19
I18
I20
I20
I33
I89
I33
I20
tp505
a(I20
I17
I21
I20
I33
I98
I32
I15
tp506
a(I20
I18
I21
I21
I30
I95
I35
I18
tp507
a(I19
I21
I22
I23
I28
I87
I33
I19
tp508
a(I18
I22
I21
I22
I27
I101
I31
I19
tp509
a(I17
I20
I18
I21
I28
I125
I29
I20
tp510
a(I18
I21
I18
I19
I26
I124
I31
I20
tp511
a(I16
I20
I17
I19
I28
I136
I29
I18
tp512
a(I16
I19
I18
I16
I28
I145
I30
I17
tp513
a(I17
I19
I18
I18
I29
I145
I30
I17
tp514
a(I16
I20
I19
I16
I30
I123
I31
I16
tp515
a(I14
I18
I19
I16
I30
I117
I37
I17
tp516
a(I16
I18
I19
I18
I32
I114
I37
I17
tp517
a(I17
I19
I18
I18
I33
I110
I36
I19
tp518
a(I16
I18
I17
I21
I33
I108
I42
I21
tp519
a(I16
I17
I16
I22
I32
I111
I44
I21
tp520
a(I17
I19
I18
I23
I33
I107
I36
I22
tp521
a(I16
I20
I20
I22
I35
I114
I35
I22
tp522
a(I16
I19
I20
I22
I35
I115
I35
I20
tp523
a(I18
I21
I20
I20
I35
I114
I33
I19
tp524
a(I18
I22
I21
I19
I34
I110
I29
I18
tp525
a(I16
I22
I19
I20
I33
I118
I29
I16
tp526
a(I18
I22
I18
I20
I29
I107
I31
I15
tp527
a(I18
I22
I20
I19
I33
I113
I33
I15
tp528
a(I17
I21
I20
I18
I37
I113
I29
I14
tp529
a(I17
I19
I20
I20
I42
I145
I39
I16
tp530
a(I19
I19
I21
I19
I44
I141
I47
I17
tp531
a(I16
I19
I21
I20
I43
I136
I46
I17
tp532
a(I16
I18
I21
I20
I41
I131
I44
I18
tp533
a(I15
I18
I20
I22
I36
I140
I47
I19
tp534
a(I15
I20
I19
I19
I33
I125
I44
I16
tp535
a(I15
I18
I19
I21
I33
I127
I36
I17
tp536
a(I16
I16
I20
I20
I34
I137
I37
I18
tp537
a(I16
I18
I17
I21
I33
I136
I39
I18
tp538
a(I16
I17
I18
I20
I34
I124
I40
I18
tp539
a(I18
I15
I19
I22
I37
I125
I40
I19
tp540
a(I16
I16
I18
I19
I37
I128
I42
I19
tp541
a(I15
I16
I17
I21
I38
I134
I42
I18
tp542
a(I17
I16
I17
I20
I40
I130
I42
I18
tp543
a(I17
I19
I19
I19
I43
I144
I37
I18
tp544
a(I14
I19
I18
I18
I40
I129
I34
I18
tp545
a(I15
I19
I18
I19
I43
I152
I40
I19
tp546
a(I17
I20
I18
I21
I43
I154
I42
I20
tp547
a(I16
I18
I19
I20
I43
I157
I42
I22
tp548
a(I18
I17
I18
I22
I44
I152
I47
I23
tp549
a(I19
I17
I17
I22
I42
I149
I47
I23
tp550
a(I18
I18
I18
I21
I39
I130
I41
I22
tp551
a(I18
I17
I18
I18
I40
I114
I36
I21
tp552
a(I16
I17
I18
I18
I36
I104
I33
I18
tp553
a(I16
I16
I17
I19
I31
I98
I32
I16
tp554
a(I15
I19
I16
I21
I30
I104
I32
I17
tp555
a(I17
I19
I15
I20
I30
I120
I33
I17
tp556
a(I17
I19
I16
I21
I28
I124
I37
I20
tp557
a(I19
I21
I15
I20
I30
I139
I38
I20
tp558
a(I18
I21
I18
I18
I33
I142
I35
I21
tp559
a(I18
I20
I20
I20
I33
I140
I32
I19
tp560
a(I17
I21
I19
I21
I33
I116
I39
I19
tp561
a(I18
I21
I18
I20
I31
I107
I40
I17
tp562
a(I16
I19
I18
I19
I32
I101
I41
I17
tp563
a(I16
I19
I19
I18
I31
I97
I43
I18
tp564
a(I18
I17
I18
I18
I33
I110
I46
I19
tp565
a(I18
I18
I19
I19
I33
I110
I41
I18
tp566
a(I18
I17
I21
I19
I40
I166
I41
I18
tp567
a(I18
I18
I21
I19
I38
I162
I41
I17
tp568
a(I20
I21
I19
I20
I36
I158
I39
I15
tp569
a(I18
I22
I18
I17
I38
I156
I39
I15
tp570
a(I16
I20
I18
I15
I39
I174
I42
I16
tp571
a(I17
I22
I18
I15
I34
I124
I39
I14
tp572
a(I17
I22
I18
I16
I33
I119
I38
I16
tp573
a(I16
I20
I17
I16
I37
I153
I39
I16
tp574
a(I17
I20
I17
I16
I33
I151
I35
I16
tp575
a(I17
I19
I16
I16
I30
I140
I34
I14
tp576
a(I15
I16
I18
I19
I29
I138
I33
I15
tp577
a(I15
I16
I17
I19
I35
I155
I41
I16
tp578
a(I15
I17
I17
I19
I46
I184
I54
I18
tp579
a(I17
I17
I19
I21
I51
I186
I58
I18
tp580
a(I19
I18
I21
I21
I55
I203
I59
I20
tp581
a(I19
I19
I20
I21
I57
I211
I65
I21
tp582
a(I20
I18
I21
I21
I60
I220
I68
I20
tp583
a(I19
I19
I21
I20
I53
I173
I56
I18
tp584
a(I17
I18
I20
I19
I51
I175
I54
I18
tp585
a(I17
I18
I18
I21
I48
I148
I52
I18
tp586
a(I18
I18
I18
I21
I49
I168
I48
I17
tp587
a(I17
I18
I18
I20
I41
I141
I36
I17
tp588
a(I17
I14
I17
I20
I36
I147
I37
I16
tp589
a(I17
I17
I18
I20
I35
I153
I40
I17
tp590
a(I18
I15
I18
I18
I35
I154
I38
I16
tp591
a(I18
I15
I20
I19
I36
I139
I44
I18
tp592
a(I19
I18
I20
I20
I35
I134
I45
I19
tp593
a(I21
I19
I22
I20
I36
I125
I44
I20
tp594
a(I19
I18
I21
I19
I36
I122
I40
I18
tp595
a(I17
I19
I21
I20
I35
I115
I40
I19
tp596
a(I17
I20
I21
I20
I30
I107
I36
I17
tp597
a(I15
I18
I20
I20
I30
I108
I36
I15
tp598
a(I14
I18
I19
I20
I29
I108
I37
I15
tp599
a(I15
I18
I19
I21
I33
I120
I37
I16
tp600
a(I16
I18
I18
I21
I33
I125
I41
I16
tp601
a(I15
I17
I17
I20
I36
I128
I39
I16
tp602
a(I16
I18
I19
I19
I39
I150
I40
I15
tp603
a(I16
I18
I18
I19
I40
I163
I39
I15
tp604
a(I17
I18
I19
I17
I36
I146
I39
I15
tp605
a(I16
I17
I19
I17
I36
I142
I35
I16
tp606
a(I18
I17
I20
I18
I35
I135
I30
I17
tp607
a(I17
I18
I18
I19
I34
I124
I30
I18
tp608
a(I17
I18
I20
I18
I33
I105
I36
I18
tp609
a(I14
I17
I19
I18
I33
I105
I36
I18
tp610
a(I16
I19
I20
I21
I31
I102
I37
I18
tp611
a(I15
I21
I18
I19
I31
I112
I38
I16
tp612
a(I16
I20
I20
I19
I29
I102
I39
I16
tp613
a(I15
I21
I18
I20
I28
I98
I33
I17
tp614
a(I17
I22
I21
I19
I29
I112
I32
I17
tp615
a(I16
I21
I20
I16
I29
I122
I34
I18
tp616
a(I17
I19
I21
I16
I29
I116
I33
I19
tp617
a(I16
I20
I20
I14
I30
I113
I31
I21
tp618
a(I19
I20
I17
I19
I42
I140
I69
I20
tp619
a(I19
I19
I17
I20
I51
I184
I72
I20
tp620
a(I16
I20
I20
I21
I50
I179
I51
I20
tp621
a(I16
I18
I19
I21
I50
I192
I43
I18
tp622
a(I16
I19
I20
I20
I51
I193
I47
I20
tp623
a(I15
I18
I20
I22
I53
I205
I50
I19
tp624
a(I15
I17
I19
I20
I44
I178
I46
I19
tp625
a(I15
I16
I15
I19
I38
I179
I45
I18
tp626
a(I15
I18
I15
I19
I33
I173
I44
I20
tp627
a(I13
I17
I16
I20
I39
I167
I49
I18
tp628
a(I13
I21
I17
I21
I36
I158
I45
I18
tp629
a(I12
I22
I17
I20
I36
I143
I40
I19
tp630
a(I13
I22
I18
I21
I34
I147
I40
I19
tp631
a(I15
I23
I21
I22
I39
I141
I42
I26
tp632
a(I15
I23
I23
I22
I36
I152
I33
I26
tp633
a(I15
I20
I22
I20
I36
I148
I34
I26
tp634
a(I15
I19
I23
I20
I40
I184
I40
I25
tp635
a(I17
I23
I23
I20
I41
I169
I41
I24
tp636
a(I16
I22
I20
I18
I42
I182
I46
I19
tp637
a(I18
I20
I19
I17
I43
I172
I46
I19
tp638
a(I19
I20
I19
I20
I43
I175
I44
I19
tp639
a(I19
I22
I18
I21
I39
I149
I38
I19
tp640
a(I17
I18
I17
I21
I41
I164
I45
I20
tp641
a(I18
I19
I18
I23
I39
I139
I36
I18
tp642
a(I16
I20
I18
I23
I36
I133
I35
I18
tp643
a(I18
I21
I18
I24
I36
I136
I37
I19
tp644
a(I18
I19
I18
I23
I39
I122
I39
I21
tp645
a(I18
I19
I18
I22
I37
I110
I33
I20
tp646
a(I17
I18
I17
I21
I36
I125
I36
I20
tp647
a(I18
I18
I16
I21
I36
I118
I36
I21
tp648
a(I17
I18
I16
I18
I33
I111
I38
I23
tp649
a(I17
I18
I16
I16
I28
I149
I36
I21
tp650
a(I18
I19
I17
I19
I26
I138
I34
I23
tp651
a(I19
I19
I17
I19
I25
I132
I35
I22
tp652
a(I18
I18
I16
I19
I22
I130
I35
I20
tp653
a(I17
I19
I18
I19
I25
I137
I30
I18
tp654
a(I19
I20
I20
I20
I30
I99
I35
I21
tp655
a(I19
I19
I21
I20
I47
I106
I47
I21
tp656
a(I17
I19
I20
I20
I56
I115
I54
I23
tp657
a(I19
I20
I22
I23
I61
I123
I59
I25
tp658
a(I18
I17
I21
I24
I61
I105
I60
I25
tp659
a(I18
I17
I19
I24
I64
I129
I61
I25
tp660
a(I19
I18
I20
I23
I52
I129
I54
I24
tp661
a(I20
I17
I20
I23
I43
I111
I44
I22
tp662
a(I19
I18
I18
I20
I39
I140
I47
I21
tp663
a(I20
I18
I17
I19
I40
I145
I48
I20
tp664
a(I19
I19
I17
I19
I32
I125
I43
I18
tp665
a(I16
I19
I16
I20
I32
I123
I42
I15
tp666
a(I15
I20
I15
I21
I36
I131
I46
I17
tp667
a(I16
I19
I15
I21
I38
I112
I40
I17
tp668
a(I16
I22
I15
I24
I36
I117
I38
I17
tp669
a(I15
I21
I17
I23
I38
I120
I37
I17
tp670
a(I16
I21
I17
I21
I38
I116
I35
I18
tp671
a(I16
I20
I18
I19
I35
I112
I30
I15
tp672
a(I16
I20
I20
I19
I33
I97
I33
I15
tp673
a(I17
I20
I20
I20
I33
I91
I45
I16
tp674
a(I17
I17
I19
I19
I32
I125
I48
I17
tp675
a(I18
I19
I19
I21
I33
I132
I51
I19
tp676
a(I20
I19
I18
I21
I32
I131
I52
I21
tp677
a(I20
I20
I18
I21
I29
I128
I47
I20
tp678
a(I18
I18
I17
I17
I30
I129
I36
I22
tp679
a(I18
I17
I17
I18
I33
I139
I41
I23
tp680
a(I17
I16
I19
I18
I32
I140
I41
I21
tp681
a(I16
I17
I19
I18
I34
I140
I40
I19
tp682
a(I16
I19
I18
I17
I33
I138
I39
I19
tp683
a(I16
I19
I18
I19
I37
I165
I40
I16
tp684
a(I16
I20
I19
I19
I35
I148
I32
I14
tp685
a(I17
I21
I16
I18
I34
I142
I29
I15
tp686
a(I18
I20
I16
I18
I33
I139
I30
I15
tp687
a(I18
I18
I15
I20
I33
I138
I30
I17
tp688
a(I17
I19
I17
I20
I26
I104
I28
I19
tp689
a(I19
I18
I18
I20
I21
I82
I29
I18
tp690
a(I18
I18
I18
I19
I19
I80
I26
I18
tp691
a(I15
I16
I19
I22
I22
I80
I25
I18
tp692
a(I15
I17
I20
I21
I21
I80
I24
I17
tp693
a(I18
I18
I19
I20
I25
I87
I25
I15
tp694
a(I17
I18
I20
I21
I29
I86
I24
I17
tp695
a(I16
I17
I22
I22
I37
I92
I29
I17
tp696
a(I16
I19
I21
I22
I36
I92
I31
I18
tp697
a(I18
I19
I20
I21
I36
I93
I30
I18
tp698
a(I17
I16
I20
I22
I35
I87
I29
I18
tp699
a(I16
I17
I18
I20
I35
I101
I34
I17
tp700
a(I16
I18
I17
I18
I30
I111
I33
I19
tp701
a(I17
I18
I16
I15
I31
I111
I34
I19
tp702
a(I14
I19
I16
I16
I32
I123
I35
I18
tp703
a(I14
I20
I17
I15
I32
I119
I38
I18
tp704
a(I14
I21
I18
I16
I31
I112
I34
I17
tp705
a(I16
I23
I18
I18
I29
I101
I30
I16
tp706
a(I16
I23
I18
I20
I30
I118
I33
I16
tp707
a(I17
I21
I21
I19
I31
I119
I35
I16
tp708
a(I17
I19
I20
I20
I32
I129
I35
I17
tp709
a(I17
I18
I19
I20
I28
I120
I33
I16
tp710
a(I15
I14
I19
I21
I29
I118
I34
I17
tp711
a(I14
I14
I20
I19
I28
I105
I28
I17
tp712
a(I16
I17
I18
I23
I33
I116
I28
I19
tp713
a(I16
I18
I18
I22
I32
I109
I28
I20
tp714
a(I17
I18
I17
I21
I32
I104
I27
I20
tp715
a(I17
I18
I17
I20
I31
I100
I25
I18
tp716
a(I16
I17
I17
I20
I32
I101
I26
I20
tp717
a(I16
I15
I18
I18
I26
I99
I31
I17
tp718
a(I15
I15
I17
I18
I27
I111
I29
I16
tp719
a(I30
I16
I17
I18
I29
I113
I30
I71
tp720
a(I35
I17
I17
I18
I29
I115
I30
I76
tp721
a(I35
I18
I18
I18
I30
I128
I32
I81
tp722
a(I35
I19
I18
I18
I29
I106
I26
I82
tp723
a(I37
I20
I19
I20
I30
I112
I26
I83
tp724
a(I25
I22
I19
I20
I30
I112
I26
I48
tp725
a(I18
I21
I19
I19
I30
I113
I26
I40
tp726
a(I19
I21
I19
I20
I30
I121
I29
I28
tp727
a(I19
I20
I18
I20
I31
I122
I28
I25
tp728
a(I15
I19
I18
I19
I32
I108
I29
I24
tp729
a(I15
I18
I19
I19
I30
I112
I28
I19
tp730
a(I16
I19
I19
I20
I34
I123
I34
I21
tp731
a(I15
I17
I19
I21
I35
I100
I32
I20
tp732
a(I14
I17
I19
I20
I36
I110
I33
I19
tp733
a(I13
I17
I17
I19
I33
I101
I33
I20
tp734
a(I13
I17
I17
I19
I33
I94
I33
I20
tp735
a(I13
I18
I16
I20
I29
I81
I27
I17
tp736
a(I16
I19
I14
I20
I26
I81
I24
I18
tp737
a(I18
I21
I15
I19
I29
I82
I23
I18
tp738
a(I18
I21
I15
I20
I28
I85
I23
I15
tp739
a(I20
I21
I15
I22
I29
I92
I23
I17
tp740
a(I20
I21
I17
I19
I33
I100
I28
I19
tp741
a(I17
I19
I17
I18
I33
I121
I29
I18
tp742
a(I16
I20
I16
I16
I29
I111
I29
I18
tp743
a(I17
I19
I17
I16
I29
I108
I28
I18
tp744
a(I15
I20
I18
I15
I28
I105
I27
I18
tp745
a(I15
I20
I23
I17
I33
I123
I38
I18
tp746
a(I15
I22
I23
I18
I35
I112
I39
I19
tp747
a(I16
I21
I23
I19
I35
I115
I40
I18
tp748
a(I14
I22
I22
I19
I35
I116
I40
I17
tp749
a(I17
I21
I23
I20
I35
I121
I43
I17
tp750
a(I17
I21
I18
I18
I30
I112
I37
I17
tp751
a(I16
I20
I17
I18
I30
I121
I38
I17
tp752
a(I16
I17
I18
I18
I28
I123
I39
I17
tp753
a(I17
I16
I18
I17
I29
I123
I38
I16
tp754
a(I15
I18
I17
I16
I29
I129
I36
I15
tp755
a(I16
I17
I16
I19
I26
I115
I31
I15
tp756
a(I18
I16
I18
I19
I24
I107
I29
I15
tp757
a(I17
I15
I16
I18
I25
I104
I26
I15
tp758
a(I19
I16
I17
I20
I25
I104
I27
I15
tp759
a(I17
I17
I17
I22
I24
I96
I27
I15
tp760
a(I17
I18
I17
I20
I26
I103
I25
I14
tp761
a(I16
I19
I16
I20
I24
I91
I23
I13
tp762
a(I15
I20
I17
I20
I24
I95
I25
I12
tp763
a(I14
I21
I16
I21
I25
I99
I26
I13
tp764
a(I15
I21
I17
I20
I29
I121
I29
I15
tp765
a(I14
I21
I17
I20
I27
I114
I29
I17
tp766
a(I14
I20
I17
I21
I27
I110
I28
I17
tp767
a(I15
I19
I17
I21
I31
I113
I28
I17
tp768
a(I15
I19
I17
I19
I34
I125
I32
I19
tp769
a(I16
I18
I16
I20
I31
I97
I30
I19
tp770
a(I16
I18
I16
I19
I31
I95
I31
I17
tp771
a(I15
I19
I18
I19
I32
I93
I30
I17
tp772
a(I16
I19
I18
I22
I29
I97
I25
I15
tp773
a(I17
I18
I17
I20
I30
I100
I22
I14
tp774
a(I17
I18
I17
I17
I29
I98
I22
I13
tp775
a(I17
I17
I17
I19
I32
I98
I24
I13
tp776
a(I15
I21
I18
I18
I33
I111
I26
I15
tp777
a(I18
I21
I20
I20
I31
I99
I25
I16
tp778
a(I18
I21
I22
I22
I31
I103
I30
I19
tp779
a(I18
I22
I23
I22
I33
I114
I32
I22
tp780
a(I18
I22
I23
I21
I36
I122
I38
I23
tp781
a(I18
I18
I22
I22
I33
I112
I39
I21
tp782
a(I17
I16
I19
I20
I34
I111
I40
I22
tp783
a(I16
I17
I19
I18
I33
I104
I37
I23
tp784
a(I16
I16
I16
I20
I33
I103
I35
I22
tp785
a(I15
I18
I16
I18
I33
I112
I30
I20
tp786
a(I14
I18
I15
I18
I36
I108
I27
I22
tp787
a(I15
I18
I15
I17
I34
I106
I26
I22
tp788
a(I15
I19
I15
I17
I34
I108
I25
I21
tp789
a(I16
I19
I17
I16
I33
I102
I25
I20
tp790
a(I16
I17
I17
I17
I31
I107
I27
I19
tp791
a(I16
I18
I16
I18
I31
I104
I28
I17
tp792
a(I16
I18
I16
I16
I32
I104
I29
I16
tp793
a(I17
I16
I15
I17
I32
I103
I29
I16
tp794
a(I16
I17
I15
I19
I30
I98
I30
I15
tp795
a(I18
I17
I15
I18
I34
I99
I31
I18
tp796
a(I16
I16
I15
I20
I37
I110
I34
I19
tp797
a(I14
I16
I16
I21
I36
I109
I33
I20
tp798
a(I14
I19
I17
I20
I36
I108
I32
I19
tp799
a(I13
I16
I17
I19
I37
I109
I32
I20
tp800
a(I13
I15
I17
I20
I35
I106
I29
I18
tp801
a(I15
I19
I19
I18
I30
I100
I24
I19
tp802
a(I15
I20
I17
I19
I31
I105
I28
I18
tp803
a(I14
I20
I19
I19
I32
I106
I30
I19
tp804
a(I15
I21
I19
I18
I33
I111
I30
I18
tp805
a(I13
I22
I20
I18
I29
I94
I29
I19
tp806
a(I13
I19
I19
I18
I28
I90
I28
I18
tp807
a(I14
I21
I20
I18
I27
I90
I25
I16
tp808
a(I14
I19
I19
I22
I28
I94
I22
I15
tp809
a(I15
I20
I17
I23
I26
I87
I21
I15
tp810
a(I15
I20
I16
I22
I28
I95
I22
I15
tp811
a(I15
I21
I16
I23
I28
I99
I27
I16
tp812
a(I15
I20
I19
I22
I27
I95
I27
I16
tp813
a(I15
I20
I18
I19
I26
I91
I27
I16
tp814
a(I13
I19
I20
I17
I25
I96
I27
I15
tp815
a(I16
I19
I19
I17
I23
I78
I27
I18
tp816
a(I15
I17
I19
I18
I27
I99
I26
I17
tp817
a(I15
I19
I15
I19
I29
I102
I25
I20
tp818
a(I15
I18
I15
I20
I31
I110
I24
I19
tp819
a(I16
I18
I14
I20
I30
I106
I23
I19
tp820
a(I13
I19
I18
I20
I29
I134
I23
I16
tp821
a(I13
I20
I18
I18
I26
I118
I20
I17
tp822
a(I13
I18
I18
I18
I27
I116
I22
I15
tp823
a(I15
I18
I19
I16
I25
I108
I20
I17
tp824
a(I16
I19
I20
I17
I31
I130
I22
I19
tp825
a(I17
I20
I16
I17
I31
I106
I21
I20
tp826
a(I16
I19
I17
I19
I30
I100
I25
I18
tp827
a(I16
I19
I18
I19
I29
I100
I24
I17
tp828
a(I15
I19
I18
I20
I30
I104
I25
I18
tp829
a(I16
I19
I18
I20
I29
I111
I31
I18
tp830
a(I16
I19
I18
I18
I27
I105
I33
I17
tp831
a(I17
I18
I19
I16
I27
I104
I30
I19
tp832
a(I19
I20
I19
I15
I27
I103
I30
I20
tp833
a(I19
I21
I18
I15
I26
I109
I30
I19
tp834
a(I19
I22
I18
I15
I25
I77
I23
I16
tp835
a(I18
I22
I18
I16
I26
I86
I18
I16
tp836
a(I17
I21
I16
I19
I27
I112
I21
I15
tp837
a(I17
I20
I16
I20
I29
I121
I26
I16
tp838
a(I15
I21
I16
I19
I30
I116
I28
I16
tp839
a(I14
I19
I16
I21
I28
I116
I27
I17
tp840
a(I16
I19
I15
I22
I30
I121
I29
I18
tp841
a(I17
I21
I17
I21
I34
I113
I30
I18
tp842
a(I18
I20
I15
I20
I33
I105
I26
I17
tp843
a(I18
I18
I16
I23
I34
I104
I28
I16
tp844
a(I18
I18
I15
I20
I33
I101
I30
I16
tp845
a(I17
I18
I15
I20
I32
I79
I29
I16
tp846
a(I16
I17
I15
I20
I31
I83
I27
I16
tp847
a(I15
I19
I16
I18
I32
I99
I28
I15
tp848
a(I16
I19
I15
I18
I31
I103
I25
I15
tp849
a(I17
I21
I16
I21
I31
I121
I25
I16
tp850
a(I17
I21
I18
I20
I31
I124
I25
I16
tp851
a(I18
I21
I17
I22
I29
I113
I26
I16
tp852
a(I18
I19
I17
I22
I27
I103
I26
I16
tp853
a(I16
I18
I19
I21
I29
I104
I27
I16
tp854
a(I18
I15
I19
I20
I30
I103
I25
I15
tp855
a(I18
I14
I17
I21
I30
I100
I24
I14
tp856
a(I18
I15
I17
I18
I33
I117
I33
I15
tp857
a(I18
I16
I17
I20
I32
I113
I34
I17
tp858
a(I18
I16
I17
I20
I33
I116
I33
I19
tp859
a(I16
I18
I16
I19
I34
I124
I33
I19
tp860
a(I16
I18
I17
I18
I35
I134
I34
I19
tp861
a(I15
I19
I16
I20
I32
I115
I24
I20
tp862
a(I14
I20
I17
I18
I32
I115
I22
I18
tp863
a(I15
I20
I17
I17
I33
I117
I21
I18
tp864
a(I14
I19
I17
I19
I32
I121
I23
I17
tp865
a(I14
I21
I17
I18
I33
I115
I24
I17
tp866
a(I16
I20
I17
I18
I33
I116
I27
I17
tp867
a(I15
I20
I17
I19
I33
I114
I26
I16
tp868
a(I15
I21
I17
I19
I31
I118
I28
I15
tp869
a(I17
I20
I17
I17
I29
I96
I26
I16
tp870
a(I18
I20
I15
I17
I26
I91
I25
I16
tp871
a(I16
I19
I16
I15
I24
I91
I24
I15
tp872
a(I17
I20
I16
I15
I23
I93
I25
I15
tp873
a(I16
I18
I17
I16
I23
I92
I25
I16
tp874
a(I17
I17
I18
I17
I22
I90
I24
I15
tp875
a(I16
I18
I19
I18
I24
I91
I23
I16
tp876
a(I16
I19
I19
I18
I25
I89
I23
I17
tp877
a(I17
I18
I18
I17
I25
I88
I20
I17
tp878
a(I17
I18
I18
I19
I25
I73
I19
I15
tp879
a(I15
I18
I19
I20
I27
I89
I23
I15
tp880
a(I16
I15
I19
I20
I26
I89
I24
I15
tp881
a(I17
I14
I19
I22
I26
I93
I23
I14
tp882
a(I16
I16
I18
I23
I27
I96
I24
I14
tp883
a(I16
I18
I17
I21
I24
I92
I23
I15
tp884
a(I17
I19
I18
I22
I26
I103
I24
I15
tp885
a(I16
I21
I18
I22
I35
I127
I26
I17
tp886
a(I15
I21
I18
I19
I35
I133
I30
I19
tp887
a(I15
I20
I18
I20
I36
I137
I32
I19
tp888
a(I14
I19
I18
I19
I38
I138
I34
I20
tp889
a(I15
I19
I17
I17
I33
I110
I33
I20
tp890
a(I13
I18
I16
I17
I27
I103
I31
I18
tp891
a(I15
I18
I19
I18
I27
I92
I28
I20
tp892
a(I17
I16
I20
I17
I25
I88
I28
I20
tp893
a(I17
I17
I21
I19
I23
I92
I29
I20
tp894
a(I17
I18
I20
I19
I25
I92
I28
I19
tp895
a(I17
I20
I20
I18
I27
I90
I28
I19
tp896
a(I17
I20
I16
I19
I27
I92
I27
I15
tp897
a(I17
I20
I19
I20
I29
I95
I26
I17
tp898
a(I17
I20
I17
I21
I30
I93
I26
I17
tp899
a(I16
I18
I18
I21
I28
I92
I25
I20
tp900
a(I17
I17
I19
I21
I26
I75
I27
I20
tp901
a(I17
I17
I21
I21
I27
I82
I26
I20
tp902
a(I16
I18
I17
I19
I25
I78
I24
I17
tp903
a(I17
I19
I18
I17
I25
I80
I24
I17
tp904
a(I17
I19
I17
I17
I28
I96
I23
I14
tp905
a(I17
I18
I20
I16
I27
I97
I22
I15
tp906
a(I15
I19
I18
I16
I27
I94
I20
I17
tp907
a(I15
I20
I18
I18
I28
I92
I22
I19
tp908
a(I15
I20
I19
I17
I26
I90
I21
I18
tp909
a(I15
I21
I17
I18
I27
I84
I22
I18
tp910
a(I15
I22
I14
I19
I27
I87
I22
I17
tp911
a(I15
I21
I15
I17
I26
I84
I22
I15
tp912
a(I14
I19
I16
I16
I26
I91
I23
I14
tp913
a(I13
I19
I17
I15
I30
I100
I30
I16
tp914
a(I12
I19
I18
I14
I29
I114
I30
I17
tp915
a(I13
I20
I19
I13
I28
I107
I29
I18
tp916
a(I12
I23
I20
I17
I27
I113
I30
I17
tp917
a(I13
I24
I20
I18
I26
I107
I29
I17
tp918
a(I14
I23
I18
I19
I35
I130
I28
I16
tp919
a(I15
I22
I18
I21
I33
I113
I28
I17
tp920
a(I16
I20
I17
I22
I34
I113
I29
I17
tp921
a(I16
I16
I18
I19
I35
I104
I28
I18
tp922
a(I19
I16
I17
I19
I34
I103
I29
I18
tp923
a(I20
I18
I18
I19
I20
I60
I22
I16
tp924
a(I20
I19
I17
I19
I21
I71
I23
I16
tp925
asS'stop'
p926
(lp927
(I215
I63
I45
I167
I70
I183
I229
I127
tp928
a(I208
I67
I50
I164
I76
I211
I262
I159
tp929
a(I209
I63
I48
I166
I82
I220
I280
I168
tp930
a(I158
I58
I56
I166
I92
I263
I326
I172
tp931
a(I158
I59
I61
I170
I94
I250
I337
I186
tp932
a(I135
I58
I59
I142
I89
I283
I306
I166
tp933
a(I147
I52
I59
I147
I94
I279
I271
I134
tp934
a(I139
I51
I60
I142
I95
I282
I268
I129
tp935
a(I151
I59
I57
I122
I83
I249
I203
I130
tp936
a(I156
I57
I57
I155
I91
I238
I200
I108
tp937
a(I177
I55
I61
I155
I88
I205
I223
I115
tp938
a(I165
I59
I59
I193
I103
I197
I223
I141
tp939
a(I160
I58
I63
I200
I99
I229
I188
I129
tp940
a(I167
I48
I59
I205
I100
I235
I200
I130
tp941
a(I164
I52
I66
I185
I92
I261
I191
I134
tp942
a(I142
I61
I75
I197
I98
I251
I177
I132
tp943
a(I147
I55
I74
I156
I72
I257
I181
I109
tp944
a(I140
I53
I69
I148
I78
I261
I212
I108
tp945
a(I124
I58
I69
I159
I79
I250
I214
I104
tp946
a(I119
I56
I66
I174
I77
I237
I219
I104
tp947
a(I123
I44
I51
I185
I79
I264
I228
I115
tp948
a(I132
I44
I54
I189
I87
I280
I228
I116
tp949
a(I136
I52
I57
I197
I88
I271
I203
I127
tp950
a(I138
I50
I59
I216
I99
I298
I200
I127
tp951
a(I141
I47
I56
I201
I99
I293
I182
I119
tp952
a(I132
I48
I60
I196
I92
I272
I158
I103
tp953
a(I106
I50
I56
I210
I88
I244
I159
I107
tp954
a(I93
I42
I55
I214
I99
I216
I154
I91
tp955
a(I135
I42
I55
I198
I96
I190
I166
I89
tp956
a(I217
I54
I51
I209
I99
I212
I176
I111
tp957
a(I231
I57
I45
I198
I100
I207
I186
I113
tp958
a(I258
I74
I54
I170
I109
I296
I191
I133
tp959
a(I266
I74
I53
I222
I122
I324
I213
I148
tp960
a(I263
I76
I48
I229
I121
I324
I212
I144
tp961
a(I224
I72
I55
I222
I124
I331
I214
I150
tp962
a(I213
I68
I56
I237
I125
I341
I209
I148
tp963
a(I238
I52
I52
I246
I119
I329
I207
I128
tp964
a(I245
I52
I52
I198
I95
I301
I198
I115
tp965
a(I247
I57
I61
I196
I108
I295
I189
I128
tp966
a(I238
I53
I59
I208
I124
I274
I184
I118
tp967
a(I232
I53
I67
I195
I130
I298
I192
I122
tp968
a(I198
I72
I75
I189
I128
I266
I225
I124
tp969
a(I187
I72
I77
I212
I143
I308
I226
I124
tp970
a(I170
I66
I72
I220
I151
I320
I227
I137
tp971
a(I157
I69
I72
I209
I150
I361
I225
I124
tp972
a(I172
I73
I66
I224
I150
I335
I228
I146
tp973
a(I156
I52
I60
I224
I149
I316
I186
I147
tp974
a(I154
I52
I65
I197
I134
I264
I167
I150
tp975
a(I159
I50
I62
I167
I109
I264
I171
I141
tp976
a(I157
I43
I55
I155
I83
I198
I158
I152
tp977
a(I180
I39
I57
I145
I78
I228
I182
I134
tp978
a(I224
I46
I54
I161
I88
I260
I191
I129
tp979
a(I245
I53
I55
I166
I94
I284
I195
I129
tp980
a(I244
I53
I58
I179
I101
I282
I191
I119
tp981
a(I257
I59
I64
I191
I105
I290
I202
I105
tp982
a(I260
I63
I62
I183
I108
I307
I182
I99
tp983
a(I222
I61
I68
I169
I120
I289
I181
I99
tp984
a(I198
I62
I62
I163
I126
I297
I189
I90
tp985
a(I193
I64
I62
I168
I129
I288
I226
I85
tp986
a(I174
I58
I60
I155
I128
I282
I241
I93
tp987
a(I137
I57
I58
I138
I121
I259
I238
I87
tp988
a(I147
I53
I48
I180
I115
I251
I242
I100
tp989
a(I207
I50
I58
I187
I113
I215
I256
I129
tp990
a(I211
I47
I54
I173
I107
I208
I242
I131
tp991
a(I220
I48
I56
I192
I114
I208
I218
I127
tp992
a(I221
I41
I55
I208
I120
I172
I211
I137
tp993
a(I208
I43
I58
I178
I106
I159
I215
I131
tp994
a(I178
I49
I68
I230
I127
I208
I235
I114
tp995
a(I164
I54
I70
I245
I125
I241
I218
I121
tp996
a(I149
I56
I72
I254
I128
I236
I221
I122
tp997
a(I149
I55
I75
I247
I123
I245
I225
I113
tp998
a(I166
I56
I76
I238
I122
I243
I204
I112
tp999
a(I153
I48
I57
I205
I95
I242
I162
I125
tp1000
a(I184
I49
I60
I184
I94
I227
I161
I120
tp1001
a(I184
I57
I72
I155
I88
I238
I291
I141
tp1002
a(I198
I57
I70
I148
I88
I275
I311
I143
tp1003
a(I183
I54
I66
I160
I93
I281
I320
I142
tp1004
a(I179
I54
I70
I184
I108
I255
I315
I123
tp1005
a(I167
I48
I66
I206
I126
I266
I313
I122
tp1006
a(I176
I35
I50
I206
I120
I267
I200
I98
tp1007
a(I222
I35
I50
I219
I123
I221
I170
I102
tp1008
a(I250
I37
I51
I253
I146
I223
I177
I109
tp1009
a(I242
I35
I48
I223
I134
I267
I188
I115
tp1010
a(I243
I39
I51
I200
I115
I267
I199
I109
tp1011
a(I236
I39
I49
I254
I151
I281
I253
I110
tp1012
a(I172
I37
I48
I257
I156
I337
I256
I103
tp1013
a(I192
I44
I53
I234
I148
I350
I293
I159
tp1014
a(I192
I51
I54
I231
I149
I321
I295
I163
tp1015
a(I176
I48
I53
I233
I146
I317
I288
I172
tp1016
a(I220
I53
I57
I183
I112
I316
I243
I174
tp1017
a(I236
I60
I73
I196
I120
I303
I248
I182
tp1018
a(I209
I53
I70
I180
I102
I271
I208
I148
tp1019
a(I222
I49
I70
I172
I98
I266
I199
I148
tp1020
a(I221
I52
I70
I196
I104
I246
I211
I139
tp1021
a(I190
I50
I68
I202
I117
I227
I220
I150
tp1022
a(I174
I45
I55
I179
I96
I153
I195
I140
tp1023
a(I183
I46
I52
I202
I102
I207
I175
I123
tp1024
a(I167
I55
I57
I216
I116
I266
I188
I109
tp1025
a(I166
I59
I62
I196
I112
I278
I223
I123
tp1026
a(I156
I59
I62
I204
I113
I336
I243
I110
tp1027
a(I166
I61
I72
I198
I114
I347
I248
I120
tp1028
a(I144
I65
I88
I174
I108
I342
I261
I143
tp1029
a(I166
I61
I88
I158
I97
I301
I248
I153
tp1030
a(I179
I53
I85
I158
I102
I303
I215
I150
tp1031
a(I200
I59
I87
I196
I92
I257
I195
I148
tp1032
a(I193
I57
I79
I201
I90
I250
I191
I143
tp1033
a(I195
I56
I63
I194
I88
I217
I187
I133
tp1034
a(I208
I57
I60
I197
I87
I226
I201
I135
tp1035
a(I198
I58
I56
I194
I85
I238
I182
I129
tp1036
a(I178
I48
I63
I121
I74
I223
I194
I141
tp1037
a(I179
I47
I64
I113
I78
I217
I209
I151
tp1038
a(I260
I54
I66
I186
I97
I261
I195
I140
tp1039
a(I252
I50
I62
I199
I93
I259
I191
I132
tp1040
a(I246
I55
I68
I208
I89
I248
I199
I132
tp1041
a(I245
I59
I57
I207
I90
I242
I190
I122
tp1042
a(I244
I59
I55
I220
I95
I267
I215
I113
tp1043
a(I146
I50
I54
I189
I80
I233
I214
I106
tp1044
a(I109
I57
I55
I175
I93
I257
I213
I114
tp1045
a(I124
I53
I55
I181
I98
I247
I218
I131
tp1046
a(I177
I51
I53
I179
I98
I256
I203
I130
tp1047
a(I177
I58
I55
I172
I104
I242
I183
I138
tp1048
a(I178
I59
I52
I158
I102
I246
I206
I143
tp1049
a(I183
I49
I55
I169
I90
I209
I197
I130
tp1050
a(I188
I47
I50
I177
I92
I235
I194
I109
tp1051
a(I154
I47
I52
I202
I111
I247
I193
I115
tp1052
a(I147
I37
I49
I199
I110
I263
I168
I99
tp1053
a(I165
I35
I48
I200
I117
I248
I163
I97
tp1054
a(I160
I47
I51
I207
I126
I309
I178
I106
tp1055
a(I142
I49
I53
I190
I122
I293
I178
I106
tp1056
a(I135
I48
I54
I171
I114
I285
I206
I90
tp1057
a(I163
I47
I52
I180
I108
I289
I224
I89
tp1058
a(I139
I51
I53
I178
I105
I334
I222
I93
tp1059
a(I144
I42
I48
I157
I97
I302
I227
I88
tp1060
a(I147
I42
I50
I152
I99
I291
I228
I92
tp1061
a(I168
I49
I54
I177
I97
I282
I209
I97
tp1062
a(I164
I49
I55
I172
I95
I264
I208
I104
tp1063
a(I172
I45
I53
I162
I89
I208
I198
I92
tp1064
a(I168
I48
I61
I186
I98
I214
I182
I91
tp1065
a(I181
I47
I59
I187
I96
I229
I172
I85
tp1066
a(I154
I40
I56
I171
I89
I226
I160
I81
tp1067
a(I137
I47
I63
I163
I86
I212
I153
I79
tp1068
a(I135
I53
I69
I181
I108
I282
I158
I96
tp1069
a(I158
I52
I63
I170
I105
I277
I161
I99
tp1070
a(I155
I53
I61
I202
I114
I283
I223
I116
tp1071
a(I150
I53
I57
I203
I116
I309
I237
I117
tp1072
a(I144
I49
I59
I204
I118
I319
I236
I118
tp1073
a(I153
I46
I51
I209
I110
I292
I233
I108
tp1074
a(I167
I47
I49
I205
I112
I293
I234
I109
tp1075
a(I158
I53
I64
I188
I104
I303
I197
I98
tp1076
a(I157
I55
I71
I191
I111
I282
I198
I100
tp1077
a(I158
I53
I64
I196
I110
I272
I193
I88
tp1078
a(I149
I59
I71
I193
I105
I273
I194
I84
tp1079
a(I118
I54
I76
I254
I140
I269
I215
I95
tp1080
a(I121
I48
I64
I254
I147
I248
I199
I91
tp1081
a(I548
I96
I118
I327
I262
I481
I970
I532
tp1082
a(I653
I86
I114
I315
I256
I526
I978
I531
tp1083
a(I620
I92
I101
I308
I230
I535
I1009
I567
tp1084
a(I615
I100
I119
I341
I237
I527
I967
I523
tp1085
a(I639
I96
I118
I329
I213
I494
I913
I471
tp1086
a(I682
I94
I124
I302
I219
I552
I1055
I493
tp1087
a(I593
I107
I132
I343
I242
I475
I1085
I501
tp1088
a(I633
I107
I132
I344
I230
I421
I991
I466
tp1089
a(I644
I104
I123
I310
I227
I466
I1029
I474
tp1090
a(I595
I98
I123
I293
I237
I513
I1024
I432
tp1091
a(I666
I101
I107
I304
I221
I557
I945
I357
tp1092
a(I677
I95
I101
I293
I229
I605
I891
I370
tp1093
a(I660
I90
I97
I284
I231
I584
I921
I372
tp1094
a(I657
I90
I96
I276
I236
I570
I866
I344
tp1095
a(I666
I93
I85
I290
I227
I568
I889
I358
tp1096
a(I660
I87
I80
I297
I223
I467
I1035
I403
tp1097
a(I610
I76
I75
I265
I181
I400
I1016
I363
tp1098
a(I605
I79
I82
I303
I199
I425
I996
I358
tp1099
a(I733
I89
I81
I332
I208
I490
I1003
I377
tp1100
a(I721
I94
I99
I349
I232
I508
I1001
I386
tp1101
a(I708
I107
I102
I347
I250
I520
I734
I371
tp1102
a(I788
I107
I106
I382
I273
I530
I745
I418
tp1103
a(I789
I114
I106
I362
I259
I504
I787
I435
tp1104
a(I674
I114
I111
I348
I241
I463
I768
I426
tp1105
a(I782
I108
I95
I354
I229
I399
I705
I436
tp1106
a(I705
I101
I91
I341
I198
I388
I764
I406
tp1107
a(I664
I99
I91
I320
I181
I365
I846
I418
tp1108
a(I701
I98
I90
I301
I180
I371
I825
I404
tp1109
a(I690
I89
I88
I302
I207
I344
I863
I420
tp1110
a(I572
I88
I90
I265
I198
I328
I814
I393
tp1111
a(I563
I84
I96
I253
I204
I343
I727
I376
tp1112
a(I551
I86
I95
I253
I192
I372
I635
I333
tp1113
a(I499
I84
I96
I267
I205
I423
I614
I356
tp1114
a(I542
I79
I87
I281
I171
I391
I583
I328
tp1115
a(I569
I75
I85
I309
I162
I399
I710
I340
tp1116
a(I582
I93
I106
I327
I193
I479
I769
I370
tp1117
a(I520
I92
I109
I318
I210
I477
I760
I362
tp1118
a(I573
I87
I106
I313
I204
I429
I763
I396
tp1119
a(I634
I99
I109
I303
I206
I424
I767
I450
tp1120
a(I628
I104
I112
I335
I271
I486
I750
I499
tp1121
a(I580
I85
I89
I325
I238
I425
I698
I475
tp1122
a(I625
I82
I85
I313
I229
I426
I655
I462
tp1123
a(I608
I80
I80
I320
I235
I450
I657
I437
tp1124
a(I483
I67
I69
I312
I232
I461
I605
I370
tp1125
a(I451
I75
I63
I342
I197
I432
I464
I266
tp1126
a(I462
I77
I60
I330
I205
I432
I459
I283
tp1127
a(I478
I83
I57
I365
I213
I424
I495
I319
tp1128
a(I468
I81
I73
I366
I216
I445
I451
I277
tp1129
a(I480
I82
I79
I371
I233
I459
I438
I296
tp1130
a(I460
I75
I86
I352
I226
I433
I453
I303
tp1131
a(I482
I73
I94
I367
I222
I419
I430
I296
tp1132
a(I391
I67
I95
I362
I234
I452
I442
I269
tp1133
a(I359
I65
I84
I362
I219
I411
I471
I293
tp1134
a(I369
I63
I85
I366
I197
I382
I496
I317
tp1135
a(I369
I62
I78
I295
I165
I391
I493
I313
tp1136
a(I351
I71
I66
I264
I156
I358
I530
I305
tp1137
a(I352
I69
I72
I235
I116
I293
I545
I302
tp1138
a(I408
I75
I76
I240
I130
I268
I614
I335
tp1139
a(I431
I81
I80
I261
I163
I286
I624
I293
tp1140
a(I440
I76
I79
I301
I172
I230
I649
I294
tp1141
a(I440
I72
I86
I373
I205
I239
I678
I291
tp1142
a(I525
I78
I88
I376
I211
I297
I687
I288
tp1143
a(I568
I78
I85
I368
I206
I287
I646
I218
tp1144
a(I555
I79
I84
I333
I182
I290
I662
I251
tp1145
a(I546
I80
I85
I298
I164
I301
I647
I223
tp1146
a(I544
I85
I89
I223
I143
I347
I585
I236
tp1147
a(I505
I82
I80
I276
I192
I371
I514
I251
tp1148
a(I389
I80
I89
I281
I198
I384
I504
I269
tp1149
a(I369
I75
I87
I310
I207
I384
I424
I254
tp1150
a(I366
I80
I87
I325
I219
I398
I449
I282
tp1151
a(I357
I77
I82
I339
I205
I364
I556
I299
tp1152
a(I357
I77
I82
I320
I181
I325
I571
I289
tp1153
a(I363
I87
I73
I321
I180
I340
I529
I268
tp1154
a(I350
I86
I70
I302
I167
I376
I589
I260
tp1155
a(I443
I86
I75
I284
I158
I367
I598
I254
tp1156
a(I447
I82
I71
I260
I157
I372
I581
I244
tp1157
a(I443
I82
I69
I266
I152
I353
I570
I250
tp1158
a(I464
I72
I68
I254
I146
I393
I570
I270
tp1159
a(I460
I81
I92
I308
I159
I372
I524
I253
tp1160
a(I386
I76
I87
I346
I173
I370
I461
I213
tp1161
a(I444
I82
I85
I334
I177
I384
I361
I218
tp1162
a(I429
I84
I87
I320
I159
I376
I369
I210
tp1163
a(I427
I87
I100
I343
I179
I326
I521
I214
tp1164
a(I547
I74
I79
I301
I181
I359
I591
I308
tp1165
a(I556
I77
I83
I265
I173
I353
I665
I335
tp1166
a(I502
I73
I84
I285
I171
I346
I751
I337
tp1167
a(I563
I87
I90
I255
I166
I357
I783
I344
tp1168
a(I553
I82
I74
I254
I141
I340
I678
I329
tp1169
a(I569
I88
I79
I293
I140
I281
I669
I293
tp1170
a(I715
I86
I84
I350
I172
I277
I601
I338
tp1171
a(I786
I85
I91
I380
I209
I281
I526
I395
tp1172
a(I755
I81
I94
I383
I214
I326
I550
I413
tp1173
a(I753
I87
I101
I363
I216
I339
I594
I419
tp1174
a(I683
I85
I98
I316
I205
I362
I538
I401
tp1175
a(I573
I99
I91
I289
I177
I356
I574
I368
tp1176
a(I485
I98
I82
I267
I157
I379
I591
I286
tp1177
a(I500
I89
I79
I262
I156
I322
I524
I273
tp1178
a(I539
I83
I68
I265
I151
I311
I564
I309
tp1179
a(I525
I81
I71
I264
I147
I296
I555
I290
tp1180
a(I461
I66
I79
I277
I200
I356
I554
I260
tp1181
a(I474
I69
I88
I255
I189
I311
I529
I278
tp1182
a(I508
I82
I92
I257
I182
I321
I561
I269
tp1183
a(I463
I85
I95
I255
I182
I344
I484
I207
tp1184
a(I530
I83
I91
I268
I197
I390
I601
I254
tp1185
a(I592
I83
I96
I213
I143
I370
I634
I297
tp1186
a(I571
I85
I94
I202
I143
I377
I659
I295
tp1187
a(I566
I69
I84
I200
I145
I386
I631
I312
tp1188
a(I621
I65
I85
I210
I145
I401
I707
I346
tp1189
a(I605
I70
I87
I224
I143
I419
I697
I389
tp1190
a(I629
I71
I79
I230
I152
I429
I720
I397
tp1191
a(I624
I67
I68
I305
I167
I437
I723
I408
tp1192
a(I558
I69
I69
I319
I185
I490
I728
I384
tp1193
a(I501
I70
I68
I318
I191
I493
I679
I397
tp1194
a(I445
I71
I78
I317
I197
I431
I610
I332
tp1195
a(I467
I70
I76
I344
I205
I424
I566
I311
tp1196
a(I469
I80
I87
I309
I208
I398
I543
I316
tp1197
a(I476
I85
I88
I326
I208
I342
I575
I324
tp1198
a(I569
I96
I85
I326
I202
I297
I544
I317
tp1199
a(I588
I94
I83
I324
I205
I359
I600
I345
tp1200
a(I474
I93
I80
I298
I187
I332
I594
I338
tp1201
a(I490
I83
I71
I292
I161
I347
I560
I307
tp1202
a(I520
I94
I82
I282
I140
I334
I558
I312
tp1203
a(I401
I84
I94
I305
I170
I332
I582
I273
tp1204
a(I381
I77
I84
I293
I155
I262
I509
I222
tp1205
a(I404
I81
I88
I285
I167
I281
I501
I201
tp1206
a(I410
I84
I86
I251
I189
I375
I549
I204
tp1207
a(I379
I69
I75
I209
I188
I362
I517
I170
tp1208
a(I381
I65
I63
I177
I161
I362
I478
I163
tp1209
a(I476
I66
I67
I161
I146
I354
I485
I210
tp1210
a(I467
I62
I65
I180
I144
I363
I479
I209
tp1211
a(I460
I56
I63
I191
I110
I244
I503
I201
tp1212
a(I462
I56
I59
I218
I109
I291
I509
I215
tp1213
a(I483
I62
I59
I235
I117
I306
I544
I250
tp1214
a(I388
I65
I57
I248
I122
I352
I585
I269
tp1215
a(I415
I66
I54
I233
I103
I318
I564
I268
tp1216
a(I430
I69
I60
I222
I102
I326
I566
I314
tp1217
a(I416
I68
I64
I210
I107
I308
I553
I311
tp1218
a(I375
I63
I62
I195
I106
I309
I547
I292
tp1219
a(I439
I68
I71
I215
I123
I317
I562
I262
tp1220
a(I446
I67
I72
I215
I123
I324
I601
I269
tp1221
a(I467
I70
I69
I236
I132
I347
I607
I259
tp1222
a(I467
I69
I77
I234
I134
I354
I714
I295
tp1223
a(I510
I79
I92
I261
I145
I382
I707
I312
tp1224
a(I464
I75
I91
I238
I137
I350
I645
I297
tp1225
a(I448
I74
I88
I238
I152
I405
I584
I286
tp1226
a(I423
I71
I89
I241
I161
I415
I514
I278
tp1227
a(I436
I70
I82
I248
I160
I400
I406
I256
tp1228
a(I392
I59
I66
I228
I160
I384
I426
I221
tp1229
a(I546
I77
I58
I244
I174
I370
I416
I267
tp1230
a(I529
I78
I58
I268
I183
I329
I495
I293
tp1231
a(I508
I77
I56
I252
I169
I288
I530
I264
tp1232
a(I540
I80
I62
I239
I168
I317
I488
I266
tp1233
a(I560
I84
I62
I218
I158
I331
I480
I267
tp1234
a(I389
I63
I65
I228
I136
I338
I514
I237
tp1235
a(I245
I59
I65
I210
I130
I215
I351
I196
tp1236
a(I230
I49
I61
I197
I129
I214
I354
I196
tp1237
a(I248
I45
I69
I238
I135
I208
I363
I194
tp1238
a(I234
I46
I74
I218
I133
I230
I326
I170
tp1239
a(I204
I42
I68
I216
I131
I206
I243
I141
tp1240
a(I184
I45
I72
I179
I108
I212
I226
I119
tp1241
a(I199
I49
I77
I175
I111
I278
I227
I113
tp1242
a(I187
I49
I65
I136
I111
I303
I219
I103
tp1243
a(I183
I47
I61
I148
I99
I274
I220
I107
tp1244
a(I173
I49
I71
I171
I117
I292
I227
I126
tp1245
a(I225
I44
I67
I180
I120
I320
I256
I146
tp1246
a(I222
I42
I63
I190
I131
I290
I275
I138
tp1247
a(I195
I47
I66
I184
I138
I282
I306
I152
tp1248
a(I226
I52
I68
I185
I148
I285
I299
I149
tp1249
a(I278
I60
I61
I211
I156
I280
I299
I139
tp1250
a(I258
I64
I63
I210
I156
I247
I278
I121
tp1251
a(I279
I66
I64
I201
I154
I245
I262
I147
tp1252
a(I289
I61
I64
I203
I154
I264
I258
I139
tp1253
a(I306
I62
I59
I214
I162
I272
I264
I149
tp1254
a(I269
I55
I54
I175
I142
I275
I267
I149
tp1255
a(I249
I50
I53
I183
I141
I290
I298
I158
tp1256
a(I242
I52
I50
I205
I147
I292
I287
I164
tp1257
a(I255
I56
I43
I205
I133
I265
I329
I183
tp1258
a(I287
I66
I51
I217
I138
I295
I371
I206
tp1259
a(I294
I64
I53
I218
I154
I287
I384
I214
tp1260
a(I313
I65
I56
I216
I151
I288
I353
I207
tp1261
a(I295
I62
I56
I192
I144
I272
I337
I186
tp1262
a(I282
I60
I59
I215
I158
I278
I288
I177
tp1263
a(I238
I48
I51
I281
I163
I235
I230
I149
tp1264
a(I279
I52
I52
I295
I162
I248
I287
I143
tp1265
a(I294
I57
I50
I307
I165
I219
I295
I143
tp1266
a(I308
I55
I54
I312
I159
I232
I301
I142
tp1267
a(I305
I58
I53
I303
I158
I228
I293
I116
tp1268
a(I314
I67
I52
I231
I141
I266
I323
I112
tp1269
a(I275
I63
I50
I212
I130
I256
I297
I129
tp1270
a(I239
I60
I52
I194
I132
I277
I298
I123
tp1271
a(I243
I63
I47
I189
I129
I259
I296
I122
tp1272
a(I246
I64
I54
I180
I116
I256
I271
I127
tp1273
a(I219
I63
I60
I168
I119
I272
I283
I150
tp1274
a(I216
I61
I61
I176
I134
I298
I255
I129
tp1275
a(I219
I59
I59
I192
I133
I289
I284
I142
tp1276
a(I222
I59
I61
I213
I135
I294
I300
I150
tp1277
a(I231
I59
I60
I207
I142
I299
I310
I151
tp1278
a(I205
I44
I56
I228
I145
I262
I303
I122
tp1279
a(I231
I52
I76
I252
I140
I223
I302
I125
tp1280
a(I275
I57
I92
I244
I142
I201
I270
I118
tp1281
a(I273
I55
I91
I236
I156
I224
I315
I124
tp1282
a(I275
I54
I94
I237
I166
I279
I334
I137
tp1283
a(I292
I58
I96
I258
I164
I270
I304
I143
tp1284
a(I276
I49
I80
I245
I159
I282
I350
I144
tp1285
a(I245
I48
I62
I237
I153
I286
I411
I170
tp1286
a(I225
I51
I63
I242
I135
I266
I380
I160
tp1287
a(I207
I49
I73
I235
I123
I215
I367
I143
tp1288
a(I253
I44
I70
I200
I132
I230
I373
I138
tp1289
a(I256
I47
I67
I187
I132
I253
I339
I135
tp1290
a(I237
I51
I75
I179
I128
I258
I267
I97
tp1291
a(I256
I56
I77
I156
I129
I269
I247
I99
tp1292
a(I274
I60
I67
I185
I139
I260
I338
I154
tp1293
a(I232
I64
I69
I168
I138
I280
I365
I178
tp1294
a(I233
I65
I79
I203
I162
I297
I363
I195
tp1295
a(I251
I58
I72
I226
I180
I348
I380
I202
tp1296
a(I270
I54
I79
I255
I186
I341
I414
I205
tp1297
a(I260
I48
I73
I242
I172
I331
I338
I185
tp1298
a(I274
I49
I77
I308
I177
I313
I304
I178
tp1299
a(I295
I48
I75
I286
I158
I279
I333
I159
tp1300
a(I317
I51
I78
I295
I143
I221
I347
I192
tp1301
a(I297
I53
I67
I290
I157
I247
I350
I208
tp1302
a(I303
I56
I67
I293
I163
I251
I391
I205
tp1303
a(I293
I51
I60
I225
I144
I236
I387
I188
tp1304
a(I272
I53
I60
I258
I169
I254
I342
I187
tp1305
a(I231
I51
I57
I242
I184
I289
I302
I141
tp1306
a(I252
I49
I64
I245
I178
I281
I263
I126
tp1307
a(I259
I49
I69
I242
I176
I293
I340
I123
tp1308
a(I294
I53
I70
I256
I176
I319
I360
I180
tp1309
a(I278
I51
I72
I221
I151
I296
I393
I193
tp1310
a(I276
I48
I69
I200
I125
I251
I397
I190
tp1311
a(I254
I53
I80
I253
I161
I283
I396
I179
tp1312
a(I252
I50
I82
I250
I161
I281
I336
I193
tp1313
a(I206
I46
I85
I252
I169
I253
I343
I151
tp1314
a(I208
I48
I80
I273
I177
I247
I311
I131
tp1315
a(I206
I50
I81
I291
I188
I245
I313
I131
tp1316
a(I213
I42
I66
I248
I156
I216
I319
I127
tp1317
a(I211
I46
I62
I243
I154
I197
I274
I99
tp1318
a(I202
I46
I59
I235
I156
I218
I284
I107
tp1319
a(I202
I47
I74
I228
I171
I263
I337
I140
tp1320
a(I249
I47
I71
I247
I171
I263
I366
I152
tp1321
a(I266
I46
I69
I222
I160
I252
I365
I166
tp1322
a(I256
I45
I73
I245
I171
I279
I392
I180
tp1323
a(I255
I53
I77
I230
I161
I277
I376
I170
tp1324
a(I276
I53
I66
I208
I131
I267
I338
I146
tp1325
a(I269
I70
I78
I287
I218
I297
I425
I196
tp1326
a(I239
I73
I75
I298
I227
I290
I436
I198
tp1327
a(I283
I76
I82
I332
I243
I311
I541
I210
tp1328
a(I278
I73
I79
I340
I248
I303
I556
I212
tp1329
a(I282
I71
I84
I367
I282
I279
I552
I222
tp1330
a(I332
I58
I79
I296
I237
I260
I491
I203
tp1331
a(I332
I56
I83
I297
I233
I248
I485
I193
tp1332
a(I307
I55
I75
I247
I212
I264
I369
I175
tp1333
a(I307
I52
I78
I246
I203
I277
I337
I176
tp1334
a(I313
I53
I66
I206
I160
I301
I330
I166
tp1335
a(I264
I49
I61
I176
I122
I296
I295
I133
tp1336
a(I264
I54
I64
I176
I136
I304
I280
I134
tp1337
a(I250
I49
I63
I168
I127
I239
I229
I126
tp1338
a(I276
I47
I57
I154
I127
I263
I225
I121
tp1339
a(I289
I53
I59
I155
I122
I236
I210
I114
tp1340
a(I252
I55
I65
I165
I131
I251
I194
I103
tp1341
a(I262
I49
I59
I148
I111
I252
I201
I103
tp1342
a(I264
I50
I53
I171
I125
I253
I193
I91
tp1343
a(I250
I60
I65
I255
I145
I217
I294
I149
tp1344
a(I210
I58
I65
I252
I140
I216
I320
I160
tp1345
a(I221
I55
I58
I258
I143
I218
I326
I161
tp1346
a(I382
I78
I83
I321
I229
I313
I491
I271
tp1347
a(I398
I81
I86
I312
I231
I329
I511
I282
tp1348
a(I428
I86
I80
I272
I225
I322
I489
I267
tp1349
a(I428
I92
I84
I292
I248
I347
I538
I276
tp1350
a(I435
I101
I86
I300
I243
I329
I543
I282
tp1351
a(I320
I93
I61
I230
I162
I237
I401
I187
tp1352
a(I300
I91
I61
I232
I150
I218
I383
I174
tp1353
a(I262
I84
I58
I230
I141
I232
I414
I186
tp1354
a(I262
I76
I50
I207
I96
I192
I355
I180
tp1355
a(I250
I65
I46
I191
I93
I190
I339
I171
tp1356
a(I225
I58
I57
I235
I100
I195
I340
I167
tp1357
a(I225
I55
I50
I254
I110
I206
I347
I169
tp1358
a(I217
I54
I58
I239
I108
I186
I250
I138
tp1359
a(I203
I53
I60
I237
I108
I188
I222
I114
tp1360
a(I194
I51
I62
I247
I128
I246
I236
I116
tp1361
a(I238
I51
I54
I227
I131
I243
I244
I118
tp1362
a(I237
I54
I57
I194
I123
I237
I252
I127
tp1363
a(I240
I46
I49
I184
I123
I239
I280
I128
tp1364
a(I263
I44
I49
I228
I156
I263
I279
I129
tp1365
a(I299
I45
I45
I214
I146
I246
I295
I130
tp1366
a(I260
I58
I64
I227
I152
I259
I281
I125
tp1367
a(I265
I64
I69
I231
I152
I254
I252
I104
tp1368
a(I298
I65
I68
I235
I160
I276
I222
I109
tp1369
a(I300
I65
I75
I195
I128
I244
I240
I144
tp1370
a(I260
I67
I75
I204
I126
I207
I225
I144
tp1371
a(I264
I57
I59
I157
I111
I197
I224
I152
tp1372
a(I299
I51
I60
I165
I121
I237
I265
I166
tp1373
a(I257
I50
I62
I182
I111
I243
I260
I162
tp1374
a(I246
I51
I52
I194
I110
I248
I265
I144
tp1375
a(I254
I49
I52
I184
I107
I255
I273
I145
tp1376
a(I292
I42
I55
I222
I117
I286
I268
I137
tp1377
a(I260
I38
I46
I219
I118
I270
I259
I118
tp1378
a(I274
I46
I52
I204
I122
I251
I305
I130
tp1379
a(I258
I44
I54
I186
I125
I256
I289
I119
tp1380
a(I283
I44
I69
I239
I163
I260
I295
I132
tp1381
a(I233
I45
I66
I219
I169
I217
I296
I123
tp1382
a(I282
I52
I71
I209
I166
I224
I266
I152
tp1383
a(I273
I54
I68
I211
I167
I250
I270
I155
tp1384
a(I278
I57
I73
I228
I169
I253
I313
I159
tp1385
a(I258
I61
I58
I172
I133
I267
I316
I159
tp1386
a(I260
I64
I66
I153
I114
I276
I319
I164
tp1387
a(I190
I60
I71
I198
I115
I252
I356
I153
tp1388
asS'forward'
p1389
(lp1390
(I104
I67
I27
I35
I97
I303
I206
I37
tp1391
a(I135
I79
I25
I32
I98
I328
I197
I35
tp1392
a(I163
I84
I25
I30
I97
I337
I175
I38
tp1393
a(I201
I106
I24
I33
I94
I297
I147
I37
tp1394
a(I209
I120
I25
I29
I66
I256
I158
I35
tp1395
a(I199
I118
I25
I29
I71
I303
I187
I43
tp1396
a(I182
I110
I25
I30
I71
I273
I182
I43
tp1397
a(I173
I102
I23
I31
I71
I277
I175
I39
tp1398
a(I144
I80
I24
I29
I72
I310
I193
I40
tp1399
a(I139
I60
I25
I33
I80
I312
I163
I43
tp1400
a(I138
I68
I25
I33
I80
I290
I162
I43
tp1401
a(I138
I69
I25
I31
I78
I301
I165
I42
tp1402
a(I127
I66
I25
I29
I79
I318
I173
I42
tp1403
a(I113
I69
I28
I31
I76
I301
I157
I41
tp1404
a(I105
I67
I27
I31
I75
I304
I160
I38
tp1405
a(I105
I59
I28
I33
I77
I296
I126
I31
tp1406
a(I111
I72
I28
I34
I77
I318
I138
I34
tp1407
a(I107
I67
I29
I37
I78
I321
I146
I37
tp1408
a(I111
I65
I25
I34
I73
I296
I144
I38
tp1409
a(I114
I73
I25
I31
I73
I287
I186
I41
tp1410
a(I124
I74
I28
I31
I76
I292
I199
I41
tp1411
a(I120
I64
I28
I30
I76
I251
I191
I39
tp1412
a(I122
I89
I29
I28
I73
I233
I177
I38
tp1413
a(I126
I91
I30
I28
I73
I232
I184
I36
tp1414
a(I131
I89
I27
I25
I64
I216
I147
I31
tp1415
a(I125
I95
I24
I22
I48
I168
I139
I32
tp1416
a(I119
I93
I25
I29
I65
I230
I150
I31
tp1417
a(I115
I80
I24
I30
I66
I205
I171
I33
tp1418
a(I102
I77
I26
I36
I80
I215
I185
I40
tp1419
a(I107
I71
I27
I37
I80
I223
I179
I39
tp1420
a(I98
I58
I26
I38
I108
I267
I175
I40
tp1421
a(I124
I82
I27
I38
I103
I231
I178
I50
tp1422
a(I129
I82
I27
I42
I137
I244
I176
I51
tp1423
a(I135
I81
I27
I43
I142
I283
I158
I47
tp1424
a(I139
I90
I27
I42
I146
I300
I167
I48
tp1425
a(I148
I92
I29
I43
I128
I271
I164
I51
tp1426
a(I124
I71
I26
I40
I131
I266
I146
I43
tp1427
a(I136
I76
I27
I36
I100
I277
I155
I41
tp1428
a(I132
I75
I23
I30
I87
I235
I165
I40
tp1429
a(I115
I64
I23
I32
I90
I262
I161
I38
tp1430
a(I113
I73
I23
I33
I90
I277
I183
I37
tp1431
a(I129
I81
I24
I31
I81
I295
I193
I39
tp1432
a(I114
I67
I23
I30
I72
I303
I189
I43
tp1433
a(I113
I75
I25
I29
I68
I320
I185
I48
tp1434
a(I118
I76
I27
I28
I55
I305
I189
I51
tp1435
a(I119
I66
I25
I23
I52
I295
I178
I49
tp1436
a(I133
I85
I23
I22
I58
I286
I192
I48
tp1437
a(I148
I87
I25
I23
I66
I267
I178
I44
tp1438
a(I174
I94
I26
I36
I134
I263
I184
I39
tp1439
a(I180
I103
I26
I38
I141
I242
I183
I36
tp1440
a(I183
I107
I26
I42
I147
I228
I179
I37
tp1441
a(I165
I85
I27
I43
I148
I226
I147
I37
tp1442
a(I178
I105
I29
I44
I148
I261
I178
I39
tp1443
a(I157
I96
I28
I39
I105
I232
I166
I40
tp1444
a(I144
I85
I27
I36
I97
I216
I155
I41
tp1445
a(I133
I82
I30
I37
I102
I261
I152
I48
tp1446
a(I154
I91
I34
I39
I103
I289
I160
I48
tp1447
a(I135
I70
I30
I37
I103
I247
I148
I47
tp1448
a(I135
I77
I30
I31
I96
I254
I149
I48
tp1449
a(I143
I78
I30
I30
I98
I273
I158
I51
tp1450
a(I153
I82
I27
I27
I91
I238
I159
I49
tp1451
a(I147
I93
I22
I25
I102
I218
I185
I52
tp1452
a(I124
I87
I25
I25
I101
I230
I187
I51
tp1453
a(I120
I76
I24
I30
I96
I224
I182
I50
tp1454
a(I140
I87
I25
I40
I130
I230
I189
I47
tp1455
a(I159
I95
I25
I41
I135
I242
I185
I46
tp1456
a(I174
I91
I24
I42
I126
I233
I163
I43
tp1457
a(I184
I93
I26
I44
I129
I298
I149
I44
tp1458
a(I190
I97
I26
I44
I133
I304
I153
I49
tp1459
a(I180
I99
I26
I38
I104
I315
I162
I50
tp1460
a(I154
I87
I26
I36
I93
I303
I169
I47
tp1461
a(I122
I69
I26
I36
I94
I308
I188
I45
tp1462
a(I113
I75
I25
I34
I101
I245
I180
I46
tp1463
a(I105
I73
I24
I31
I94
I243
I178
I42
tp1464
a(I89
I58
I23
I30
I86
I222
I161
I43
tp1465
a(I107
I77
I23
I34
I83
I229
I163
I41
tp1466
a(I106
I77
I25
I32
I81
I242
I172
I42
tp1467
a(I131
I75
I24
I34
I104
I246
I179
I40
tp1468
a(I155
I93
I24
I37
I111
I262
I189
I42
tp1469
a(I156
I91
I22
I37
I123
I262
I208
I38
tp1470
a(I148
I90
I24
I34
I127
I275
I215
I39
tp1471
a(I149
I91
I25
I37
I125
I261
I190
I38
tp1472
a(I136
I89
I23
I33
I96
I250
I193
I45
tp1473
a(I128
I79
I23
I32
I96
I249
I187
I45
tp1474
a(I126
I83
I25
I31
I84
I249
I186
I45
tp1475
a(I144
I85
I22
I30
I82
I227
I173
I45
tp1476
a(I146
I84
I20
I26
I86
I241
I168
I46
tp1477
a(I133
I80
I19
I26
I87
I238
I154
I42
tp1478
a(I125
I82
I20
I25
I86
I240
I147
I37
tp1479
a(I141
I84
I20
I24
I95
I235
I111
I38
tp1480
a(I139
I76
I21
I25
I101
I240
I141
I44
tp1481
a(I142
I82
I22
I25
I97
I231
I180
I47
tp1482
a(I147
I84
I24
I27
I96
I244
I193
I46
tp1483
a(I141
I80
I24
I26
I93
I248
I198
I47
tp1484
a(I132
I82
I25
I26
I80
I250
I211
I48
tp1485
a(I120
I77
I26
I27
I91
I324
I212
I46
tp1486
a(I133
I85
I27
I34
I99
I329
I180
I41
tp1487
a(I131
I88
I26
I36
I113
I316
I177
I40
tp1488
a(I148
I88
I26
I37
I107
I299
I175
I40
tp1489
a(I153
I91
I28
I38
I110
I316
I172
I41
tp1490
a(I149
I87
I27
I38
I98
I238
I143
I37
tp1491
a(I173
I92
I26
I32
I100
I223
I162
I37
tp1492
a(I181
I91
I29
I31
I89
I242
I160
I40
tp1493
a(I170
I87
I28
I35
I109
I287
I217
I54
tp1494
a(I175
I90
I25
I35
I109
I257
I224
I55
tp1495
a(I171
I92
I26
I33
I106
I260
I227
I56
tp1496
a(I148
I92
I27
I34
I100
I254
I219
I57
tp1497
a(I134
I90
I27
I34
I102
I249
I212
I56
tp1498
a(I133
I87
I26
I28
I86
I250
I213
I48
tp1499
a(I129
I91
I27
I27
I81
I255
I213
I50
tp1500
a(I129
I92
I27
I28
I79
I253
I207
I49
tp1501
a(I121
I76
I25
I30
I71
I250
I214
I51
tp1502
a(I130
I80
I25
I30
I76
I243
I226
I52
tp1503
a(I144
I83
I27
I32
I72
I251
I192
I48
tp1504
a(I143
I78
I27
I32
I71
I249
I171
I43
tp1505
a(I140
I77
I28
I34
I77
I277
I182
I54
tp1506
a(I170
I94
I29
I34
I85
I275
I172
I56
tp1507
a(I167
I93
I28
I35
I89
I293
I155
I54
tp1508
a(I161
I93
I27
I33
I88
I248
I173
I56
tp1509
a(I154
I83
I26
I33
I88
I252
I178
I60
tp1510
a(I167
I82
I25
I33
I86
I222
I168
I48
tp1511
a(I130
I61
I25
I30
I82
I248
I176
I44
tp1512
a(I150
I69
I27
I33
I82
I234
I176
I45
tp1513
a(I155
I67
I26
I37
I87
I228
I128
I42
tp1514
a(I161
I75
I26
I38
I88
I221
I124
I39
tp1515
a(I156
I84
I26
I40
I89
I251
I168
I48
tp1516
a(I153
I80
I28
I43
I95
I294
I159
I48
tp1517
a(I153
I87
I26
I40
I97
I320
I176
I49
tp1518
a(I137
I85
I26
I37
I100
I346
I186
I49
tp1519
a(I137
I83
I26
I37
I101
I372
I195
I49
tp1520
a(I176
I90
I28
I34
I102
I375
I170
I45
tp1521
a(I181
I97
I25
I31
I105
I348
I174
I44
tp1522
a(I168
I93
I26
I33
I115
I323
I173
I40
tp1523
a(I170
I93
I25
I35
I119
I307
I197
I46
tp1524
a(I173
I90
I27
I39
I128
I316
I218
I55
tp1525
a(I135
I80
I30
I42
I128
I301
I219
I54
tp1526
a(I137
I72
I30
I42
I127
I274
I209
I54
tp1527
a(I125
I56
I31
I41
I112
I297
I215
I55
tp1528
a(I145
I81
I32
I38
I108
I329
I226
I67
tp1529
a(I137
I80
I30
I37
I95
I293
I217
I62
tp1530
a(I140
I72
I25
I34
I91
I289
I212
I61
tp1531
a(I144
I88
I26
I32
I80
I274
I238
I61
tp1532
a(I150
I87
I23
I32
I75
I255
I224
I63
tp1533
a(I123
I65
I25
I31
I64
I192
I177
I43
tp1534
a(I113
I62
I26
I27
I61
I176
I151
I43
tp1535
a(I92
I61
I26
I27
I59
I156
I144
I41
tp1536
a(I93
I60
I27
I31
I92
I251
I134
I42
tp1537
a(I108
I65
I29
I31
I90
I237
I132
I39
tp1538
a(I117
I67
I28
I31
I89
I244
I151
I37
tp1539
a(I128
I82
I28
I30
I89
I259
I158
I37
tp1540
a(I134
I83
I27
I28
I97
I312
I186
I47
tp1541
a(I138
I84
I26
I28
I66
I253
I181
I48
tp1542
a(I130
I82
I26
I28
I68
I262
I178
I47
tp1543
a(I130
I80
I25
I28
I66
I267
I167
I50
tp1544
a(I125
I71
I25
I30
I69
I274
I169
I47
tp1545
a(I117
I75
I25
I30
I57
I211
I149
I38
tp1546
a(I137
I61
I51
I43
I75
I271
I202
I59
tp1547
a(I163
I76
I48
I43
I76
I281
I211
I57
tp1548
a(I156
I79
I47
I43
I78
I299
I217
I59
tp1549
a(I182
I86
I45
I43
I77
I281
I185
I59
tp1550
a(I194
I92
I39
I42
I72
I272
I180
I54
tp1551
a(I185
I92
I39
I40
I75
I263
I196
I49
tp1552
a(I170
I93
I37
I40
I79
I263
I189
I49
tp1553
a(I193
I99
I38
I40
I81
I255
I197
I47
tp1554
a(I177
I101
I37
I37
I93
I259
I201
I51
tp1555
a(I160
I104
I44
I42
I96
I289
I192
I54
tp1556
a(I185
I105
I43
I40
I90
I289
I164
I48
tp1557
a(I220
I103
I43
I40
I90
I304
I149
I45
tp1558
a(I204
I97
I45
I41
I84
I286
I144
I44
tp1559
a(I217
I93
I43
I43
I75
I307
I165
I40
tp1560
a(I253
I98
I40
I42
I82
I288
I180
I41
tp1561
a(I247
I107
I43
I44
I88
I306
I196
I43
tp1562
a(I211
I101
I46
I43
I85
I273
I200
I44
tp1563
a(I239
I102
I54
I49
I86
I276
I189
I44
tp1564
a(I225
I100
I62
I56
I87
I250
I175
I58
tp1565
a(I182
I95
I73
I55
I80
I241
I167
I57
tp1566
a(I166
I79
I75
I58
I75
I209
I151
I58
tp1567
a(I167
I68
I73
I57
I72
I205
I150
I59
tp1568
a(I142
I71
I68
I49
I67
I187
I143
I57
tp1569
a(I162
I82
I66
I44
I64
I193
I212
I53
tp1570
a(I195
I85
I52
I42
I74
I228
I252
I67
tp1571
a(I259
I104
I47
I41
I86
I304
I275
I75
tp1572
a(I269
I110
I46
I41
I97
I342
I282
I75
tp1573
a(I260
I111
I46
I41
I101
I363
I284
I76
tp1574
a(I239
I101
I42
I41
I98
I348
I244
I69
tp1575
a(I222
I107
I46
I41
I84
I337
I194
I60
tp1576
a(I175
I103
I45
I39
I74
I278
I169
I49
tp1577
a(I184
I112
I48
I39
I68
I267
I207
I56
tp1578
a(I188
I112
I44
I39
I66
I255
I230
I59
tp1579
a(I225
I130
I43
I36
I65
I267
I223
I60
tp1580
a(I219
I126
I41
I38
I86
I338
I226
I59
tp1581
a(I201
I118
I45
I39
I87
I355
I224
I59
tp1582
a(I191
I105
I43
I39
I87
I354
I185
I51
tp1583
a(I188
I100
I44
I42
I94
I378
I156
I47
tp1584
a(I169
I104
I45
I47
I114
I427
I167
I55
tp1585
a(I178
I96
I48
I48
I112
I381
I213
I57
tp1586
a(I189
I107
I46
I48
I108
I363
I231
I57
tp1587
a(I181
I109
I48
I50
I112
I342
I265
I66
tp1588
a(I202
I122
I48
I50
I109
I310
I274
I64
tp1589
a(I187
I101
I47
I44
I89
I235
I270
I56
tp1590
a(I183
I104
I43
I40
I80
I229
I224
I54
tp1591
a(I177
I96
I45
I38
I96
I313
I258
I64
tp1592
a(I180
I99
I46
I40
I92
I338
I248
I56
tp1593
a(I166
I98
I43
I40
I87
I336
I236
I58
tp1594
a(I191
I103
I44
I42
I90
I330
I272
I67
tp1595
a(I241
I119
I44
I43
I88
I333
I281
I62
tp1596
a(I246
I114
I42
I40
I70
I254
I228
I49
tp1597
a(I251
I118
I38
I37
I66
I255
I214
I50
tp1598
a(I247
I109
I46
I43
I84
I321
I217
I50
tp1599
a(I235
I106
I51
I46
I93
I363
I224
I61
tp1600
a(I242
I112
I51
I47
I100
I387
I266
I77
tp1601
a(I231
I116
I52
I52
I103
I391
I267
I78
tp1602
a(I226
I115
I53
I51
I101
I369
I288
I80
tp1603
a(I255
I126
I47
I47
I91
I339
I328
I86
tp1604
a(I255
I131
I39
I41
I75
I291
I326
I82
tp1605
a(I236
I127
I39
I39
I61
I234
I336
I75
tp1606
a(I234
I124
I36
I34
I66
I257
I343
I74
tp1607
a(I240
I132
I35
I34
I72
I280
I333
I75
tp1608
a(I210
I125
I34
I30
I67
I262
I311
I72
tp1609
a(I198
I119
I36
I34
I78
I335
I349
I78
tp1610
a(I151
I95
I42
I37
I80
I327
I323
I80
tp1611
a(I152
I96
I43
I35
I89
I357
I317
I82
tp1612
a(I144
I86
I44
I35
I89
I339
I308
I79
tp1613
a(I164
I91
I43
I35
I98
I339
I327
I76
tp1614
a(I204
I98
I44
I33
I94
I307
I255
I59
tp1615
a(I222
I102
I37
I29
I99
I329
I247
I47
tp1616
a(I233
I103
I38
I32
I92
I296
I296
I51
tp1617
a(I239
I96
I42
I39
I86
I302
I314
I55
tp1618
a(I220
I82
I48
I48
I82
I338
I286
I53
tp1619
a(I215
I87
I51
I52
I85
I375
I290
I64
tp1620
a(I198
I81
I50
I53
I80
I386
I275
I66
tp1621
a(I190
I82
I53
I54
I75
I362
I231
I65
tp1622
a(I174
I85
I47
I50
I78
I374
I197
I62
tp1623
a(I179
I88
I44
I42
I81
I365
I202
I63
tp1624
a(I138
I69
I42
I38
I73
I301
I190
I50
tp1625
a(I149
I89
I58
I51
I90
I345
I192
I52
tp1626
a(I160
I88
I57
I53
I98
I380
I213
I46
tp1627
a(I195
I97
I58
I55
I111
I410
I218
I61
tp1628
a(I206
I100
I64
I59
I112
I392
I309
I82
tp1629
a(I213
I102
I63
I59
I127
I404
I333
I92
tp1630
a(I208
I87
I53
I51
I126
I411
I392
I93
tp1631
a(I212
I89
I52
I48
I124
I396
I384
I94
tp1632
a(I188
I80
I51
I46
I113
I353
I397
I86
tp1633
a(I224
I95
I46
I44
I111
I394
I356
I72
tp1634
a(I222
I100
I44
I43
I97
I385
I362
I59
tp1635
a(I229
I103
I44
I43
I84
I304
I302
I53
tp1636
a(I221
I111
I44
I38
I81
I327
I298
I53
tp1637
a(I219
I113
I47
I39
I95
I352
I274
I49
tp1638
a(I175
I94
I45
I40
I100
I328
I246
I45
tp1639
a(I178
I94
I46
I40
I103
I354
I216
I51
tp1640
a(I185
I136
I52
I43
I108
I389
I223
I55
tp1641
a(I180
I128
I49
I43
I103
I354
I214
I54
tp1642
a(I191
I126
I57
I52
I91
I328
I235
I55
tp1643
a(I185
I126
I55
I50
I77
I319
I217
I51
tp1644
a(I192
I128
I55
I53
I99
I329
I223
I53
tp1645
a(I191
I84
I45
I49
I100
I292
I211
I55
tp1646
a(I186
I79
I51
I53
I102
I299
I210
I56
tp1647
a(I205
I114
I51
I49
I107
I364
I238
I84
tp1648
a(I213
I127
I53
I53
I112
I362
I269
I90
tp1649
a(I197
I125
I60
I55
I103
I396
I271
I89
tp1650
a(I313
I153
I63
I55
I99
I393
I323
I103
tp1651
a(I342
I164
I61
I57
I106
I426
I329
I104
tp1652
a(I324
I146
I54
I53
I101
I369
I298
I84
tp1653
a(I323
I138
I52
I50
I107
I369
I282
I78
tp1654
a(I327
I136
I46
I48
I94
I316
I283
I78
tp1655
a(I216
I103
I43
I46
I94
I365
I235
I60
tp1656
a(I189
I90
I40
I41
I91
I327
I237
I66
tp1657
a(I196
I94
I39
I39
I90
I322
I230
I65
tp1658
a(I226
I112
I39
I35
I77
I308
I217
I65
tp1659
a(I231
I111
I37
I32
I78
I312
I184
I58
tp1660
a(I219
I109
I43
I35
I79
I314
I179
I50
tp1661
a(I206
I119
I44
I37
I88
I417
I184
I45
tp1662
a(I232
I111
I43
I39
I90
I439
I189
I42
tp1663
a(I226
I89
I56
I49
I93
I449
I195
I46
tp1664
a(I218
I94
I57
I48
I91
I448
I199
I49
tp1665
a(I229
I92
I54
I50
I90
I402
I186
I54
tp1666
a(I250
I107
I52
I50
I79
I323
I192
I53
tp1667
a(I233
I108
I53
I50
I74
I308
I191
I55
tp1668
a(I243
I136
I41
I42
I76
I321
I254
I59
tp1669
a(I251
I136
I41
I43
I78
I316
I262
I60
tp1670
a(I243
I135
I40
I40
I77
I341
I256
I56
tp1671
a(I232
I116
I43
I48
I86
I367
I254
I57
tp1672
a(I240
I122
I42
I47
I86
I364
I256
I55
tp1673
a(I210
I92
I40
I47
I83
I342
I205
I47
tp1674
a(I219
I91
I42
I48
I78
I320
I194
I45
tp1675
a(I218
I94
I41
I46
I79
I319
I207
I47
tp1676
a(I207
I94
I36
I37
I67
I249
I183
I40
tp1677
a(I213
I95
I45
I40
I65
I250
I208
I47
tp1678
a(I205
I97
I44
I44
I71
I261
I209
I46
tp1679
a(I216
I107
I42
I46
I99
I375
I212
I58
tp1680
a(I254
I115
I44
I48
I96
I353
I221
I63
tp1681
a(I272
I126
I45
I47
I100
I374
I236
I65
tp1682
a(I251
I117
I39
I46
I108
I398
I225
I65
tp1683
a(I256
I133
I44
I42
I106
I397
I221
I66
tp1684
a(I236
I123
I41
I38
I81
I295
I225
I58
tp1685
a(I190
I112
I42
I37
I88
I293
I212
I51
tp1686
a(I225
I143
I57
I49
I97
I333
I228
I55
tp1687
a(I232
I149
I57
I49
I95
I345
I237
I54
tp1688
a(I222
I135
I63
I55
I101
I354
I230
I60
tp1689
a(I217
I135
I67
I54
I100
I342
I224
I58
tp1690
a(I233
I144
I69
I56
I94
I360
I248
I63
tp1691
a(I183
I122
I60
I48
I81
I303
I229
I62
tp1692
a(I165
I114
I64
I54
I91
I302
I243
I73
tp1693
a(I183
I113
I56
I48
I91
I279
I247
I75
tp1694
a(I189
I122
I56
I51
I106
I387
I260
I78
tp1695
a(I169
I112
I53
I48
I114
I402
I242
I77
tp1696
a(I166
I103
I49
I45
I117
I408
I235
I78
tp1697
a(I197
I113
I43
I39
I110
I423
I204
I72
tp1698
a(I198
I118
I41
I37
I121
I458
I239
I67
tp1699
a(I55
I38
I35
I53
I186
I566
I172
I57
tp1700
a(I56
I38
I33
I45
I176
I516
I180
I61
tp1701
a(I54
I31
I32
I40
I159
I505
I164
I56
tp1702
a(I58
I37
I40
I44
I139
I426
I168
I53
tp1703
a(I61
I32
I43
I47
I144
I447
I160
I52
tp1704
a(I70
I31
I41
I46
I145
I424
I148
I50
tp1705
a(I87
I36
I43
I49
I144
I422
I153
I46
tp1706
a(I84
I38
I40
I46
I146
I438
I173
I45
tp1707
a(I84
I37
I33
I41
I138
I457
I167
I43
tp1708
a(I89
I42
I29
I40
I122
I430
I171
I46
tp1709
a(I85
I43
I30
I37
I108
I408
I164
I47
tp1710
a(I69
I40
I30
I35
I105
I413
I157
I46
tp1711
a(I71
I40
I34
I38
I109
I400
I138
I48
tp1712
a(I78
I39
I34
I38
I118
I386
I136
I49
tp1713
a(I64
I35
I36
I36
I137
I365
I163
I43
tp1714
a(I63
I36
I40
I42
I135
I391
I172
I48
tp1715
a(I66
I38
I39
I44
I141
I394
I166
I52
tp1716
a(I67
I40
I40
I44
I135
I359
I170
I49
tp1717
a(I59
I45
I43
I46
I130
I339
I195
I49
tp1718
a(I70
I55
I41
I45
I107
I346
I162
I52
tp1719
a(I78
I62
I39
I42
I101
I301
I159
I52
tp1720
a(I83
I61
I40
I40
I94
I318
I160
I47
tp1721
a(I83
I60
I38
I38
I100
I362
I160
I49
tp1722
a(I99
I60
I39
I40
I128
I466
I144
I51
tp1723
a(I94
I50
I40
I40
I134
I460
I146
I49
tp1724
a(I86
I39
I41
I35
I133
I456
I138
I39
tp1725
a(I83
I37
I41
I33
I134
I440
I134
I39
tp1726
a(I82
I37
I38
I31
I128
I408
I127
I43
tp1727
a(I59
I29
I37
I27
I103
I327
I121
I44
tp1728
a(I69
I31
I40
I34
I98
I295
I116
I40
tp1729
a(I97
I35
I38
I37
I113
I357
I109
I41
tp1730
a(I95
I36
I40
I40
I117
I349
I119
I41
tp1731
a(I99
I38
I41
I43
I128
I357
I127
I43
tp1732
a(I100
I37
I39
I43
I126
I330
I117
I41
tp1733
a(I94
I36
I34
I38
I132
I340
I113
I43
tp1734
a(I73
I39
I37
I37
I141
I307
I118
I45
tp1735
a(I68
I39
I34
I33
I141
I304
I109
I43
tp1736
a(I81
I36
I36
I30
I139
I346
I135
I41
tp1737
a(I94
I37
I38
I30
I142
I343
I143
I41
tp1738
a(I94
I40
I41
I32
I136
I364
I150
I42
tp1739
a(I90
I36
I43
I41
I123
I409
I150
I41
tp1740
a(I93
I36
I48
I48
I123
I425
I146
I43
tp1741
a(I77
I35
I47
I49
I130
I415
I121
I39
tp1742
a(I63
I35
I50
I53
I131
I455
I112
I39
tp1743
a(I63
I31
I48
I53
I132
I461
I123
I38
tp1744
a(I69
I29
I43
I46
I129
I408
I125
I36
tp1745
a(I67
I30
I39
I46
I125
I386
I131
I35
tp1746
a(I92
I36
I41
I43
I112
I367
I124
I34
tp1747
a(I89
I35
I36
I42
I107
I323
I149
I38
tp1748
a(I86
I36
I36
I41
I106
I294
I157
I37
tp1749
a(I86
I39
I37
I40
I109
I289
I159
I38
tp1750
a(I95
I42
I39
I37
I104
I304
I161
I40
tp1751
a(I73
I37
I38
I39
I110
I315
I171
I40
tp1752
a(I72
I38
I39
I39
I110
I303
I158
I34
tp1753
a(I83
I40
I39
I42
I109
I353
I137
I37
tp1754
a(I80
I38
I37
I42
I122
I385
I134
I43
tp1755
a(I80
I34
I33
I40
I127
I397
I137
I42
tp1756
a(I79
I37
I36
I40
I130
I380
I131
I43
tp1757
a(I79
I37
I34
I36
I123
I387
I118
I43
tp1758
a(I67
I36
I33
I32
I122
I339
I115
I41
tp1759
a(I83
I37
I35
I33
I109
I313
I136
I34
tp1760
a(I76
I38
I36
I32
I103
I303
I152
I34
tp1761
a(I75
I38
I34
I34
I101
I287
I172
I41
tp1762
a(I76
I38
I35
I36
I110
I286
I179
I42
tp1763
a(I88
I42
I37
I37
I121
I346
I182
I41
tp1764
a(I90
I41
I37
I36
I116
I357
I166
I43
tp1765
a(I84
I40
I37
I37
I120
I358
I162
I45
tp1766
a(I91
I43
I33
I33
I128
I387
I137
I39
tp1767
a(I90
I45
I35
I34
I125
I424
I144
I39
tp1768
a(I81
I42
I36
I35
I122
I411
I159
I46
tp1769
a(I91
I45
I39
I34
I122
I393
I165
I45
tp1770
a(I92
I44
I40
I37
I121
I391
I149
I42
tp1771
a(I97
I39
I39
I36
I107
I372
I141
I41
tp1772
a(I106
I40
I36
I33
I103
I336
I154
I42
tp1773
a(I119
I44
I34
I33
I93
I312
I144
I32
tp1774
a(I99
I38
I30
I31
I96
I324
I136
I30
tp1775
a(I105
I39
I27
I29
I115
I378
I154
I35
tp1776
a(I111
I42
I35
I37
I127
I401
I166
I36
tp1777
a(I111
I40
I43
I47
I138
I394
I162
I35
tp1778
a(I96
I34
I43
I47
I149
I414
I163
I37
tp1779
a(I99
I38
I45
I48
I145
I388
I161
I38
tp1780
a(I100
I39
I46
I53
I140
I333
I152
I35
tp1781
a(I81
I38
I43
I51
I140
I344
I148
I34
tp1782
a(I77
I38
I34
I44
I135
I350
I140
I37
tp1783
a(I82
I38
I34
I43
I128
I335
I139
I37
tp1784
a(I77
I35
I35
I45
I139
I376
I141
I35
tp1785
a(I82
I34
I35
I42
I129
I366
I141
I35
tp1786
a(I98
I34
I34
I36
I112
I320
I149
I36
tp1787
a(I95
I37
I39
I40
I119
I386
I137
I34
tp1788
a(I94
I39
I41
I40
I110
I353
I131
I33
tp1789
a(I98
I38
I41
I40
I94
I330
I146
I36
tp1790
a(I91
I37
I42
I38
I102
I380
I136
I33
tp1791
a(I78
I40
I45
I46
I138
I472
I118
I44
tp1792
a(I74
I34
I41
I42
I132
I419
I117
I43
tp1793
a(I85
I41
I43
I46
I135
I428
I124
I44
tp1794
a(I78
I41
I41
I43
I141
I451
I104
I43
tp1795
a(I83
I42
I38
I43
I145
I409
I115
I44
tp1796
a(I81
I41
I38
I36
I110
I296
I128
I32
tp1797
a(I85
I45
I42
I37
I110
I305
I123
I37
tp1798
a(I82
I41
I43
I34
I114
I350
I116
I38
tp1799
a(I84
I41
I42
I34
I106
I301
I114
I37
tp1800
a(I76
I44
I43
I34
I103
I338
I115
I38
tp1801
a(I80
I42
I41
I39
I105
I348
I123
I36
tp1802
a(I77
I38
I37
I37
I120
I370
I142
I35
tp1803
a(I70
I35
I30
I36
I120
I337
I151
I32
tp1804
a(I72
I37
I31
I39
I124
I358
I149
I32
tp1805
a(I69
I31
I29
I39
I130
I355
I156
I35
tp1806
a(I59
I33
I32
I38
I132
I369
I152
I37
tp1807
a(I79
I38
I32
I39
I119
I373
I143
I34
tp1808
a(I84
I37
I32
I39
I115
I400
I131
I36
tp1809
a(I82
I33
I30
I35
I110
I385
I140
I43
tp1810
a(I88
I35
I31
I36
I104
I384
I145
I42
tp1811
a(I100
I32
I32
I33
I107
I397
I135
I42
tp1812
a(I86
I29
I31
I32
I100
I352
I125
I39
tp1813
a(I81
I32
I33
I35
I111
I335
I146
I40
tp1814
a(I81
I35
I36
I38
I114
I351
I138
I34
tp1815
a(I76
I32
I36
I36
I111
I314
I115
I35
tp1816
a(I61
I34
I35
I44
I115
I267
I121
I37
tp1817
a(I62
I35
I37
I47
I117
I268
I140
I38
tp1818
a(I134
I62
I36
I45
I114
I262
I120
I36
tp1819
a(I169
I77
I39
I48
I123
I281
I118
I35
tp1820
a(I210
I104
I41
I51
I127
I290
I148
I40
tp1821
a(I222
I110
I40
I47
I119
I292
I156
I39
tp1822
a(I230
I109
I39
I50
I131
I332
I152
I41
tp1823
a(I196
I98
I41
I49
I122
I322
I152
I41
tp1824
a(I173
I91
I39
I47
I111
I282
I172
I41
tp1825
a(I127
I68
I42
I48
I109
I261
I146
I34
tp1826
a(I119
I60
I40
I45
I112
I297
I153
I36
tp1827
a(I108
I68
I40
I39
I95
I237
I148
I34
tp1828
a(I111
I65
I39
I40
I92
I213
I155
I36
tp1829
a(I106
I65
I39
I41
I103
I277
I137
I39
tp1830
a(I102
I57
I33
I34
I98
I302
I142
I40
tp1831
a(I115
I69
I38
I38
I99
I284
I160
I37
tp1832
a(I109
I61
I37
I40
I99
I321
I155
I37
tp1833
a(I105
I62
I40
I39
I104
I352
I152
I36
tp1834
a(I101
I56
I36
I36
I105
I345
I158
I35
tp1835
a(I122
I69
I41
I40
I99
I358
I164
I32
tp1836
a(I98
I58
I39
I38
I100
I340
I120
I30
tp1837
a(I100
I58
I38
I36
I99
I327
I126
I33
tp1838
a(I104
I60
I35
I37
I107
I295
I139
I36
tp1839
a(I106
I60
I36
I38
I103
I285
I142
I44
tp1840
a(I102
I54
I31
I36
I113
I256
I145
I47
tp1841
a(I117
I52
I29
I37
I106
I286
I144
I47
tp1842
a(I125
I53
I29
I36
I114
I316
I141
I45
tp1843
a(I128
I60
I31
I36
I117
I346
I131
I42
tp1844
a(I133
I71
I32
I39
I119
I362
I127
I34
tp1845
a(I115
I63
I33
I38
I111
I380
I122
I29
tp1846
a(I97
I62
I34
I38
I118
I379
I129
I30
tp1847
a(I100
I82
I39
I38
I132
I422
I133
I30
tp1848
a(I102
I86
I38
I38
I122
I402
I130
I29
tp1849
a(I118
I80
I38
I33
I124
I426
I148
I27
tp1850
a(I128
I87
I36
I33
I124
I418
I142
I33
tp1851
a(I130
I89
I38
I36
I130
I434
I173
I34
tp1852
asS'backward'
p1853
(lp1854
(I151
I140
I71
I142
I356
I402
I140
I101
tp1855
a(I159
I143
I71
I140
I389
I433
I154
I106
tp1856
a(I164
I120
I69
I132
I368
I392
I148
I116
tp1857
a(I181
I134
I72
I134
I366
I459
I174
I98
tp1858
a(I174
I150
I78
I131
I355
I463
I182
I95
tp1859
a(I178
I147
I74
I115
I325
I423
I180
I101
tp1860
a(I171
I145
I86
I124
I320
I366
I166
I101
tp1861
a(I178
I149
I85
I118
I308
I391
I180
I85
tp1862
a(I158
I143
I83
I131
I331
I296
I141
I74
tp1863
a(I155
I130
I76
I132
I354
I375
I142
I69
tp1864
a(I163
I138
I73
I128
I349
I408
I139
I64
tp1865
a(I134
I134
I61
I130
I348
I401
I137
I53
tp1866
a(I101
I139
I63
I150
I419
I365
I126
I49
tp1867
a(I111
I136
I63
I132
I411
I385
I126
I57
tp1868
a(I135
I126
I79
I143
I434
I327
I113
I70
tp1869
a(I141
I123
I79
I145
I431
I348
I122
I72
tp1870
a(I145
I125
I87
I152
I462
I365
I135
I77
tp1871
a(I155
I119
I86
I132
I396
I397
I125
I78
tp1872
a(I157
I114
I85
I132
I397
I429
I124
I75
tp1873
a(I143
I146
I92
I122
I367
I418
I174
I82
tp1874
a(I124
I146
I97
I177
I523
I403
I170
I84
tp1875
a(I121
I150
I95
I193
I537
I414
I165
I84
tp1876
a(I129
I148
I96
I198
I559
I381
I167
I96
tp1877
a(I123
I150
I99
I208
I567
I336
I171
I97
tp1878
a(I114
I168
I96
I214
I630
I410
I133
I85
tp1879
a(I121
I166
I90
I194
I551
I377
I140
I76
tp1880
a(I119
I158
I87
I169
I489
I363
I132
I80
tp1881
a(I110
I181
I92
I178
I513
I411
I147
I69
tp1882
a(I128
I180
I89
I164
I491
I431
I151
I65
tp1883
a(I131
I146
I76
I192
I468
I367
I151
I61
tp1884
a(I119
I159
I75
I170
I413
I361
I143
I60
tp1885
a(I146
I175
I88
I246
I524
I442
I163
I69
tp1886
a(I139
I147
I79
I236
I479
I407
I154
I69
tp1887
a(I130
I151
I88
I242
I502
I396
I153
I68
tp1888
a(I156
I138
I81
I220
I448
I393
I149
I85
tp1889
a(I159
I122
I88
I231
I496
I428
I155
I96
tp1890
a(I138
I116
I80
I153
I407
I352
I146
I84
tp1891
a(I150
I122
I82
I152
I401
I345
I140
I82
tp1892
a(I152
I126
I78
I141
I379
I329
I133
I83
tp1893
a(I127
I128
I77
I159
I416
I379
I126
I68
tp1894
a(I125
I123
I69
I137
I349
I321
I112
I54
tp1895
a(I122
I118
I77
I137
I325
I405
I160
I53
tp1896
a(I163
I114
I82
I149
I357
I436
I158
I87
tp1897
a(I156
I106
I79
I162
I379
I444
I173
I96
tp1898
a(I161
I110
I85
I131
I355
I388
I182
I98
tp1899
a(I159
I114
I94
I191
I525
I441
I198
I99
tp1900
a(I171
I94
I81
I196
I564
I402
I153
I100
tp1901
a(I127
I104
I80
I191
I552
I373
I158
I86
tp1902
a(I124
I114
I84
I184
I535
I377
I160
I78
tp1903
a(I125
I114
I84
I201
I544
I395
I162
I83
tp1904
a(I138
I125
I82
I146
I384
I364
I143
I83
tp1905
a(I138
I145
I79
I123
I304
I325
I148
I82
tp1906
a(I131
I159
I81
I117
I308
I351
I156
I72
tp1907
a(I134
I161
I82
I123
I341
I340
I137
I75
tp1908
a(I130
I161
I81
I108
I343
I353
I138
I72
tp1909
a(I157
I147
I80
I159
I425
I387
I157
I77
tp1910
a(I152
I126
I80
I168
I452
I418
I166
I77
tp1911
a(I162
I100
I87
I206
I540
I384
I160
I87
tp1912
a(I155
I86
I85
I209
I545
I393
I174
I87
tp1913
a(I166
I80
I85
I205
I522
I396
I158
I87
tp1914
a(I170
I93
I90
I238
I604
I405
I159
I113
tp1915
a(I194
I95
I86
I236
I595
I359
I142
I122
tp1916
a(I187
I108
I73
I206
I517
I406
I156
I114
tp1917
a(I210
I108
I73
I241
I571
I458
I146
I110
tp1918
a(I201
I119
I72
I247
I580
I440
I150
I108
tp1919
a(I167
I125
I71
I187
I432
I399
I143
I75
tp1920
a(I167
I140
I83
I200
I472
I429
I152
I70
tp1921
a(I177
I134
I87
I202
I463
I391
I130
I85
tp1922
a(I160
I127
I86
I167
I413
I399
I170
I90
tp1923
a(I153
I134
I84
I168
I425
I401
I172
I87
tp1924
a(I161
I134
I76
I165
I432
I407
I164
I89
tp1925
a(I142
I119
I70
I148
I407
I370
I165
I83
tp1926
a(I141
I121
I65
I149
I422
I386
I176
I73
tp1927
a(I136
I150
I65
I144
I499
I373
I148
I69
tp1928
a(I145
I148
I71
I132
I490
I403
I145
I81
tp1929
a(I163
I203
I91
I137
I487
I395
I151
I81
tp1930
a(I154
I206
I94
I154
I487
I398
I144
I80
tp1931
a(I157
I224
I97
I181
I548
I398
I135
I79
tp1932
a(I171
I234
I110
I171
I423
I398
I146
I83
tp1933
a(I173
I225
I107
I168
I397
I380
I151
I74
tp1934
a(I150
I180
I91
I165
I392
I363
I143
I71
tp1935
a(I145
I189
I99
I178
I447
I386
I153
I67
tp1936
a(I130
I172
I95
I164
I429
I372
I163
I68
tp1937
a(I107
I155
I88
I169
I447
I310
I140
I55
tp1938
a(I106
I159
I89
I174
I446
I335
I141
I54
tp1939
a(I111
I149
I91
I170
I443
I425
I183
I52
tp1940
a(I110
I140
I74
I135
I362
I400
I178
I54
tp1941
a(I108
I129
I76
I143
I372
I402
I169
I45
tp1942
a(I104
I101
I71
I134
I362
I413
I170
I51
tp1943
a(I132
I112
I69
I131
I369
I400
I207
I48
tp1944
a(I141
I114
I65
I130
I380
I302
I180
I53
tp1945
a(I148
I107
I71
I139
I403
I381
I186
I57
tp1946
a(I159
I101
I68
I100
I325
I433
I200
I61
tp1947
a(I172
I109
I62
I97
I319
I429
I207
I68
tp1948
a(I141
I100
I64
I122
I391
I436
I172
I67
tp1949
a(I128
I108
I73
I123
I403
I453
I164
I66
tp1950
a(I133
I109
I71
I134
I430
I440
I192
I66
tp1951
a(I125
I125
I79
I155
I484
I404
I204
I67
tp1952
a(I108
I135
I83
I162
I491
I383
I197
I58
tp1953
a(I109
I132
I81
I173
I529
I348
I188
I72
tp1954
a(I110
I128
I71
I172
I524
I371
I189
I72
tp1955
a(I121
I126
I67
I159
I473
I304
I156
I80
tp1956
a(I116
I144
I73
I168
I483
I295
I125
I84
tp1957
a(I110
I133
I69
I162
I488
I300
I128
I84
tp1958
a(I120
I144
I101
I211
I528
I369
I142
I76
tp1959
a(I113
I136
I103
I221
I532
I339
I141
I75
tp1960
a(I107
I156
I117
I222
I552
I438
I173
I72
tp1961
a(I122
I130
I111
I206
I498
I444
I180
I69
tp1962
a(I126
I143
I117
I216
I521
I508
I190
I71
tp1963
a(I155
I140
I94
I210
I521
I454
I178
I77
tp1964
a(I156
I142
I95
I207
I521
I446
I176
I75
tp1965
a(I143
I117
I82
I219
I522
I368
I152
I67
tp1966
a(I131
I112
I80
I220
I520
I394
I141
I64
tp1967
a(I132
I96
I77
I217
I512
I342
I124
I63
tp1968
a(I103
I80
I72
I151
I385
I378
I141
I53
tp1969
a(I105
I104
I73
I159
I381
I382
I144
I53
tp1970
a(I119
I108
I67
I137
I363
I387
I147
I60
tp1971
a(I130
I122
I63
I136
I384
I349
I147
I56
tp1972
a(I134
I119
I52
I128
I381
I317
I150
I58
tp1973
a(I122
I129
I54
I153
I488
I306
I150
I59
tp1974
a(I123
I111
I53
I130
I489
I297
I149
I58
tp1975
a(I112
I114
I55
I129
I482
I270
I129
I47
tp1976
a(I99
I103
I56
I124
I466
I303
I127
I49
tp1977
a(I96
I109
I59
I121
I435
I298
I123
I49
tp1978
a(I128
I130
I66
I90
I320
I333
I114
I55
tp1979
a(I130
I130
I60
I91
I298
I343
I116
I55
tp1980
a(I123
I134
I64
I100
I328
I404
I154
I58
tp1981
a(I121
I138
I77
I104
I318
I374
I156
I56
tp1982
a(I136
I144
I84
I104
I325
I369
I158
I58
tp1983
a(I131
I123
I77
I106
I308
I394
I168
I57
tp1984
a(I132
I122
I82
I109
I305
I401
I174
I59
tp1985
a(I136
I143
I91
I185
I425
I356
I156
I66
tp1986
a(I139
I154
I86
I189
I436
I401
I165
I69
tp1987
a(I137
I143
I75
I190
I433
I423
I164
I71
tp1988
a(I129
I151
I77
I187
I432
I406
I155
I75
tp1989
a(I142
I159
I78
I210
I473
I452
I141
I77
tp1990
a(I175
I135
I73
I142
I357
I462
I128
I77
tp1991
a(I199
I136
I74
I154
I395
I439
I143
I91
tp1992
a(I188
I138
I76
I151
I392
I440
I150
I86
tp1993
a(I181
I134
I77
I150
I377
I388
I163
I78
tp1994
a(I193
I128
I74
I114
I347
I337
I181
I80
tp1995
a(I162
I128
I68
I128
I374
I387
I185
I74
tp1996
a(I139
I113
I62
I101
I316
I373
I163
I53
tp1997
a(I139
I118
I63
I100
I315
I345
I155
I51
tp1998
a(I132
I124
I60
I96
I301
I362
I141
I51
tp1999
a(I113
I121
I62
I110
I322
I380
I129
I56
tp2000
a(I140
I117
I58
I100
I304
I335
I130
I58
tp2001
a(I142
I125
I57
I105
I300
I338
I143
I60
tp2002
a(I153
I135
I68
I114
I314
I418
I158
I63
tp2003
a(I173
I120
I65
I139
I329
I411
I157
I65
tp2004
a(I168
I117
I63
I132
I293
I402
I153
I61
tp2005
a(I162
I149
I75
I125
I274
I380
I153
I60
tp2006
a(I154
I143
I76
I126
I294
I380
I139
I60
tp2007
a(I149
I141
I70
I118
I270
I305
I121
I68
tp2008
a(I200
I167
I86
I205
I549
I465
I172
I120
tp2009
a(I210
I215
I96
I189
I563
I373
I148
I111
tp2010
a(I248
I224
I97
I172
I510
I406
I145
I133
tp2011
a(I241
I223
I99
I171
I520
I504
I159
I143
tp2012
a(I235
I220
I96
I150
I453
I468
I144
I132
tp2013
a(I237
I211
I84
I148
I403
I451
I162
I130
tp2014
a(I244
I175
I67
I167
I420
I488
I162
I138
tp2015
a(I244
I168
I67
I168
I402
I494
I178
I124
tp2016
a(I235
I161
I60
I173
I423
I386
I196
I108
tp2017
a(I227
I157
I63
I187
I447
I376
I208
I116
tp2018
a(I254
I212
I64
I164
I405
I356
I186
I118
tp2019
a(I238
I208
I64
I156
I411
I384
I187
I128
tp2020
a(I215
I216
I63
I177
I473
I350
I170
I122
tp2021
a(I215
I215
I64
I181
I494
I367
I134
I121
tp2022
a(I242
I242
I69
I178
I501
I453
I139
I121
tp2023
a(I206
I204
I59
I174
I496
I446
I133
I121
tp2024
a(I182
I196
I67
I168
I446
I375
I123
I90
tp2025
a(I182
I180
I72
I157
I471
I394
I145
I93
tp2026
a(I203
I189
I73
I144
I417
I426
I147
I103
tp2027
a(I177
I173
I70
I138
I394
I335
I128
I104
tp2028
a(I228
I181
I80
I154
I454
I398
I143
I107
tp2029
a(I234
I186
I86
I171
I483
I461
I174
I123
tp2030
a(I236
I190
I87
I187
I557
I444
I180
I125
tp2031
a(I238
I176
I94
I225
I643
I403
I181
I123
tp2032
a(I237
I157
I97
I219
I639
I424
I193
I120
tp2033
a(I183
I125
I100
I217
I599
I431
I192
I113
tp2034
a(I190
I152
I96
I202
I574
I403
I188
I101
tp2035
a(I169
I139
I93
I170
I419
I417
I176
I99
tp2036
a(I134
I165
I88
I113
I265
I403
I176
I87
tp2037
a(I131
I166
I82
I122
I266
I411
I166
I93
tp2038
a(I154
I172
I75
I126
I267
I373
I159
I96
tp2039
a(I136
I148
I67
I131
I310
I342
I129
I89
tp2040
a(I186
I155
I84
I151
I349
I315
I126
I103
tp2041
a(I204
I139
I84
I155
I367
I332
I136
I113
tp2042
a(I206
I150
I86
I144
I365
I293
I146
I109
tp2043
a(I268
I164
I83
I193
I560
I264
I140
I162
tp2044
a(I282
I161
I85
I190
I540
I274
I139
I169
tp2045
a(I261
I161
I69
I194
I540
I374
I160
I160
tp2046
a(I253
I170
I74
I194
I537
I371
I176
I155
tp2047
a(I264
I191
I74
I213
I590
I369
I169
I152
tp2048
a(I189
I182
I75
I153
I402
I440
I176
I85
tp2049
a(I167
I183
I76
I158
I412
I468
I203
I73
tp2050
a(I158
I190
I73
I175
I431
I392
I195
I64
tp2051
a(I155
I178
I62
I213
I481
I436
I192
I64
tp2052
a(I126
I150
I63
I211
I422
I444
I199
I64
tp2053
a(I129
I146
I63
I214
I432
I386
I206
I67
tp2054
a(I131
I153
I62
I212
I438
I367
I193
I60
tp2055
a(I219
I163
I67
I233
I471
I424
I180
I107
tp2056
a(I219
I172
I73
I198
I410
I388
I170
I114
tp2057
a(I234
I172
I85
I210
I474
I463
I198
I114
tp2058
a(I248
I183
I84
I222
I490
I523
I184
I122
tp2059
a(I248
I186
I85
I231
I515
I515
I196
I125
tp2060
a(I181
I167
I84
I188
I487
I480
I210
I91
tp2061
a(I204
I161
I78
I199
I529
I463
I199
I83
tp2062
a(I206
I177
I77
I181
I483
I425
I169
I89
tp2063
a(I183
I167
I79
I168
I455
I359
I180
I82
tp2064
a(I197
I179
I81
I169
I465
I503
I172
I83
tp2065
a(I221
I188
I81
I174
I430
I506
I162
I95
tp2066
a(I194
I196
I85
I180
I445
I517
I170
I97
tp2067
a(I182
I187
I73
I172
I422
I504
I170
I91
tp2068
a(I201
I206
I86
I166
I425
I532
I170
I97
tp2069
a(I215
I201
I92
I160
I420
I410
I150
I113
tp2070
a(I184
I194
I104
I187
I548
I424
I162
I98
tp2071
a(I190
I181
I106
I182
I541
I476
I179
I106
tp2072
a(I210
I183
I108
I187
I579
I447
I169
I112
tp2073
a(I211
I181
I98
I248
I663
I468
I181
I111
tp2074
a(I186
I165
I91
I249
I675
I442
I187
I100
tp2075
a(I183
I161
I73
I228
I589
I468
I182
I100
tp2076
a(I195
I163
I66
I220
I565
I412
I155
I93
tp2077
a(I190
I158
I63
I231
I575
I439
I159
I99
tp2078
a(I174
I131
I59
I207
I565
I364
I128
I93
tp2079
a(I190
I127
I54
I196
I516
I366
I121
I106
tp2080
a(I231
I127
I58
I189
I488
I314
I161
I126
tp2081
a(I252
I146
I61
I187
I468
I356
I164
I131
tp2082
a(I241
I159
I64
I185
I460
I361
I181
I128
tp2083
a(I243
I157
I70
I157
I378
I346
I199
I132
tp2084
a(I244
I168
I73
I163
I379
I354
I220
I129
tp2085
a(I212
I187
I83
I160
I393
I385
I187
I111
tp2086
a(I179
I181
I85
I164
I439
I337
I192
I102
tp2087
a(I182
I160
I83
I171
I485
I307
I181
I127
tp2088
a(I179
I160
I85
I163
I496
I337
I163
I126
tp2089
a(I193
I159
I88
I172
I497
I324
I136
I122
tp2090
a(I189
I151
I76
I174
I485
I251
I124
I123
tp2091
a(I177
I149
I80
I176
I457
I284
I137
I122
tp2092
a(I198
I166
I78
I149
I378
I304
I129
I93
tp2093
a(I210
I171
I69
I152
I363
I271
I121
I99
tp2094
a(I249
I160
I66
I130
I346
I365
I163
I121
tp2095
a(I270
I142
I74
I135
I372
I416
I176
I133
tp2096
a(I288
I184
I71
I127
I385
I410
I170
I139
tp2097
a(I279
I185
I68
I126
I386
I409
I178
I141
tp2098
a(I299
I189
I72
I113
I357
I465
I213
I140
tp2099
a(I279
I192
I75
I117
I349
I475
I190
I135
tp2100
a(I262
I212
I75
I118
I323
I434
I181
I127
tp2101
a(I250
I184
I79
I127
I351
I430
I172
I124
tp2102
a(I239
I165
I83
I136
I370
I430
I174
I130
tp2103
a(I210
I168
I91
I143
I383
I409
I151
I122
tp2104
a(I173
I175
I88
I147
I388
I323
I141
I109
tp2105
a(I172
I156
I81
I146
I402
I367
I139
I103
tp2106
a(I169
I135
I74
I163
I409
I394
I147
I105
tp2107
a(I191
I166
I81
I159
I374
I422
I135
I98
tp2108
a(I199
I201
I73
I149
I380
I400
I118
I105
tp2109
a(I206
I201
I71
I155
I383
I395
I129
I94
tp2110
a(I207
I196
I72
I157
I418
I410
I178
I99
tp2111
a(I233
I211
I75
I126
I360
I448
I170
I115
tp2112
a(I247
I205
I77
I140
I378
I403
I175
I119
tp2113
a(I262
I156
I74
I138
I351
I425
I194
I123
tp2114
a(I295
I157
I86
I156
I489
I484
I193
I159
tp2115
a(I303
I206
I98
I148
I439
I440
I179
I160
tp2116
a(I310
I216
I98
I154
I450
I375
I191
I147
tp2117
a(I288
I215
I89
I130
I422
I470
I192
I143
tp2118
a(I265
I218
I89
I146
I461
I530
I192
I132
tp2119
a(I226
I214
I91
I134
I356
I533
I199
I87
tp2120
a(I223
I168
I78
I148
I422
I546
I179
I104
tp2121
a(I177
I143
I75
I150
I417
I542
I171
I104
tp2122
a(I173
I135
I77
I169
I456
I469
I174
I95
tp2123
a(I187
I137
I78
I183
I453
I429
I155
I99
tp2124
a(I195
I131
I68
I189
I462
I394
I149
I113
tp2125
a(I207
I154
I80
I184
I428
I408
I155
I115
tp2126
a(I247
I150
I78
I183
I420
I411
I155
I116
tp2127
a(I261
I134
I74
I182
I410
I442
I157
I130
tp2128
a(I251
I126
I77
I164
I390
I443
I155
I131
tp2129
a(I232
I130
I74
I143
I358
I412
I140
I121
tp2130
a(I235
I109
I76
I147
I356
I392
I140
I109
tp2131
a(I217
I118
I79
I158
I398
I403
I137
I109
tp2132
a(I200
I135
I80
I142
I368
I435
I131
I98
tp2133
a(I215
I142
I75
I141
I398
I375
I133
I104
tp2134
a(I241
I146
I74
I134
I372
I389
I157
I100
tp2135
a(I233
I169
I55
I119
I354
I393
I145
I96
tp2136
a(I217
I165
I52
I131
I398
I458
I155
I95
tp2137
a(I233
I228
I99
I148
I415
I433
I167
I100
tp2138
a(I220
I236
I104
I145
I414
I478
I172
I104
tp2139
a(I257
I232
I110
I145
I419
I492
I161
I129
tp2140
a(I317
I213
I114
I153
I471
I488
I164
I170
tp2141
a(I335
I213
I114
I121
I398
I404
I150
I185
tp2142
a(I326
I152
I87
I101
I488
I449
I157
I186
tp2143
a(I337
I152
I87
I90
I478
I405
I151
I185
tp2144
a(I305
I158
I78
I89
I466
I377
I165
I174
tp2145
a(I256
I157
I79
I214
I598
I397
I166
I161
tp2146
a(I248
I173
I76
I226
I614
I400
I176
I156
tp2147
a(I297
I163
I65
I225
I532
I312
I151
I189
tp2148
a(I305
I156
I63
I233
I529
I333
I156
I221
tp2149
a(I295
I146
I62
I237
I531
I324
I132
I221
tp2150
a(I272
I153
I69
I140
I327
I363
I136
I200
tp2151
a(I270
I138
I73
I135
I348
I404
I124
I193
tp2152
a(I220
I129
I72
I136
I354
I410
I128
I170
tp2153
a(I195
I130
I68
I126
I365
I404
I112
I125
tp2154
a(I191
I150
I70
I122
I369
I434
I122
I117
tp2155
a(I225
I155
I64
I123
I417
I447
I141
I120
tp2156
a(I210
I153
I63
I108
I367
I422
I140
I119
tp2157
a(I200
I148
I60
I112
I390
I449
I143
I101
tp2158
a(I225
I141
I56
I107
I343
I439
I155
I93
tp2159
a(I227
I156
I57
I123
I397
I453
I161
I96
tp2160
a(I186
I154
I50
I130
I381
I402
I148
I89
tp2161
a(I218
I159
I50
I191
I498
I396
I166
I92
tp2162
a(I216
I123
I70
I142
I415
I313
I143
I132
tp2163
a(I182
I128
I75
I134
I392
I328
I136
I109
tp2164
a(I163
I192
I92
I143
I389
I326
I146
I115
tp2165
a(I135
I210
I99
I136
I366
I349
I164
I110
tp2166
a(I128
I212
I99
I121
I341
I323
I138
I101
tp2167
a(I241
I221
I100
I124
I368
I308
I149
I151
tp2168
a(I265
I231
I101
I125
I367
I306
I158
I161
tp2169
a(I268
I178
I87
I116
I378
I326
I155
I159
tp2170
a(I281
I158
I77
I115
I401
I347
I147
I155
tp2171
a(I280
I156
I84
I100
I320
I347
I154
I153
tp2172
a(I206
I194
I90
I101
I307
I348
I151
I101
tp2173
a(I171
I178
I85
I118
I397
I398
I159
I94
tp2174
a(I183
I187
I94
I115
I387
I396
I160
I116
tp2175
a(I173
I182
I91
I121
I370
I408
I159
I131
tp2176
a(I188
I202
I85
I127
I403
I400
I157
I130
tp2177
a(I191
I155
I74
I142
I418
I381
I157
I140
tp2178
a(I195
I175
I72
I126
I352
I347
I140
I134
tp2179
a(I188
I167
I63
I128
I357
I345
I138
I119
tp2180
a(I186
I164
I61
I129
I357
I294
I127
I101
tp2181
a(I163
I133
I61
I132
I330
I277
I128
I99
tp2182
a(I174
I141
I64
I133
I351
I282
I136
I112
tp2183
a(I192
I129
I65
I150
I376
I263
I170
I119
tp2184
a(I184
I125
I58
I148
I361
I233
I167
I111
tp2185
a(I216
I153
I89
I168
I399
I256
I168
I130
tp2186
a(I226
I157
I86
I164
I404
I263
I164
I131
tp2187
a(I208
I155
I90
I146
I392
I251
I161
I110
tp2188
a(I187
I139
I91
I124
I372
I272
I142
I110
tp2189
a(I232
I151
I93
I122
I374
I263
I137
I121
tp2190
a(I286
I149
I101
I126
I411
I328
I153
I130
tp2191
a(I287
I141
I100
I124
I412
I321
I153
I140
tp2192
a(I289
I134
I94
I121
I378
I334
I140
I140
tp2193
a(I323
I150
I96
I134
I363
I311
I137
I135
tp2194
a(I296
I137
I94
I144
I404
I350
I169
I134
tp2195
a(I210
I109
I54
I111
I324
I310
I169
I110
tp2196
a(I233
I125
I70
I112
I365
I346
I176
I131
tp2197
a(I244
I143
I75
I117
I374
I354
I188
I150
tp2198
a(I198
I130
I70
I95
I352
I378
I183
I148
tp2199
a(I223
I163
I80
I94
I339
I397
I161
I148
tp2200
a(I241
I182
I85
I99
I360
I408
I152
I156
tp2201
a(I208
I174
I71
I94
I310
I398
I140
I129
tp2202
a(I202
I162
I70
I98
I319
I429
I131
I103
tp2203
a(I228
I162
I85
I104
I325
I438
I132
I106
tp2204
a(I200
I171
I91
I93
I291
I415
I141
I104
tp2205
a(I190
I158
I85
I92
I268
I362
I125
I88
tp2206
a(I199
I167
I94
I116
I299
I398
I139
I83
tp2207
a(I196
I172
I95
I144
I307
I428
I154
I92
tp2208
a(I177
I173
I84
I141
I308
I390
I158
I83
tp2209
a(I177
I141
I70
I143
I306
I371
I151
I75
tp2210
a(I170
I145
I72
I145
I328
I465
I171
I87
tp2211
a(I155
I129
I69
I138
I315
I432
I162
I92
tp2212
a(I175
I123
I66
I110
I305
I370
I149
I96
tp2213
a(I187
I147
I65
I110
I297
I408
I152
I107
tp2214
a(I194
I147
I77
I118
I335
I411
I151
I103
tp2215
a(I200
I147
I80
I110
I315
I316
I125
I99
tp2216
a(I196
I150
I76
I123
I346
I306
I128
I98
tp2217
a(I175
I161
I82
I131
I355
I309
I155
I94
tp2218
a(I158
I147
I81
I138
I401
I270
I165
I101
tp2219
a(I142
I135
I67
I128
I367
I280
I161
I110
tp2220
a(I143
I142
I69
I137
I374
I347
I197
I109
tp2221
a(I151
I143
I65
I122
I346
I336
I195
I105
tp2222
a(I153
I134
I61
I112
I338
I340
I171
I125
tp2223
a(I170
I127
I70
I123
I355
I420
I171
I119
tp2224
a(I180
I134
I79
I126
I370
I440
I208
I114
tp2225
a(I179
I163
I103
I233
I488
I396
I186
I116
tp2226
a(I173
I168
I105
I235
I496
I394
I182
I117
tp2227
a(I189
I175
I110
I246
I550
I401
I197
I110
tp2228
a(I169
I175
I105
I243
I525
I305
I187
I108
tp2229
a(I188
I172
I98
I241
I511
I270
I149
I119
tp2230
a(I271
I144
I87
I195
I448
I278
I139
I151
tp2231
a(I291
I130
I83
I194
I433
I315
I142
I160
tp2232
a(I277
I120
I73
I175
I352
I290
I128
I151
tp2233
a(I291
I149
I109
I197
I436
I308
I117
I151
tp2234
a(I276
I152
I112
I219
I483
I347
I126
I142
tp2235
a(I210
I134
I97
I180
I465
I357
I128
I115
tp2236
a(I186
I158
I99
I176
I472
I371
I134
I104
tp2237
a(I195
I164
I101
I178
I471
I375
I141
I107
tp2238
a(I167
I143
I60
I142
I363
I371
I138
I104
tp2239
a(I169
I143
I63
I121
I338
I391
I171
I100
tp2240
a(I153
I177
I74
I107
I294
I389
I178
I83
tp2241
a(I207
I165
I75
I109
I292
I422
I194
I96
tp2242
a(I210
I159
I70
I117
I297
I463
I197
I90
tp2243
a(I236
I156
I80
I133
I320
I472
I201
I102
tp2244
a(I246
I158
I82
I123
I305
I434
I166
I107
tp2245
a(I251
I145
I95
I151
I333
I451
I179
I114
tp2246
a(I220
I133
I94
I150
I320
I430
I180
I105
tp2247
a(I205
I126
I93
I144
I316
I385
I167
I102
tp2248
a(I187
I127
I89
I147
I344
I373
I162
I83
tp2249
a(I214
I136
I92
I157
I378
I403
I181
I95
tp2250
a(I203
I134
I77
I130
I354
I406
I169
I100
tp2251
a(I240
I148
I76
I127
I344
I358
I147
I110
tp2252
a(I246
I159
I87
I136
I360
I397
I176
I127
tp2253
a(I244
I163
I82
I125
I331
I409
I180
I129
tp2254
a(I215
I151
I70
I111
I269
I456
I168
I122
tp2255
a(I223
I135
I61
I112
I274
I414
I152
I111
tp2256
a(I177
I139
I71
I122
I299
I431
I156
I102
tp2257
a(I167
I129
I63
I111
I320
I381
I127
I83
tp2258
a(I178
I123
I63
I124
I363
I368
I164
I84
tp2259
a(I214
I133
I70
I127
I384
I240
I163
I101
tp2260
a(I200
I167
I81
I121
I383
I293
I174
I100
tp2261
a(I202
I157
I76
I121
I398
I304
I171
I103
tp2262
a(I208
I167
I74
I123
I382
I332
I172
I100
tp2263
a(I231
I184
I78
I115
I380
I358
I135
I129
tp2264
a(I194
I177
I73
I112
I368
I387
I133
I125
tp2265
a(I211
I145
I64
I111
I356
I350
I117
I135
tp2266
a(I225
I153
I59
I99
I336
I352
I138
I156
tp2267
a(I225
I146
I59
I120
I359
I349
I132
I156
tp2268
a(I205
I112
I57
I111
I303
I332
I126
I136
tp2269
a(I211
I117
I60
I123
I340
I348
I136
I130
tp2270
a(I210
I123
I70
I133
I361
I366
I144
I139
tp2271
a(I189
I108
I71
I134
I362
I337
I118
I111
tp2272
a(I185
I101
I70
I130
I374
I320
I114
I109
tp2273
a(I171
I105
I69
I135
I405
I333
I122
I109
tp2274
a(I170
I98
I68
I131
I386
I345
I117
I110
tp2275
a(I155
I79
I58
I129
I379
I353
I119
I89
tp2276
a(I156
I75
I55
I127
I369
I347
I124
I89
tp2277
a(I163
I98
I67
I131
I330
I360
I127
I104
tp2278
a(I162
I110
I67
I129
I307
I339
I122
I100
tp2279
a(I155
I115
I64
I128
I344
I281
I111
I96
tp2280
a(I154
I127
I73
I122
I412
I335
I122
I93
tp2281
a(I152
I149
I79
I132
I449
I335
I125
I94
tp2282
a(I163
I136
I70
I121
I453
I319
I144
I93
tp2283
a(I157
I123
I68
I114
I449
I350
I154
I92
tp2284
a(I153
I129
I71
I127
I428
I379
I153
I101
tp2285
a(I176
I143
I59
I126
I353
I391
I141
I105
tp2286
a(I185
I123
I56
I116
I311
I388
I133
I103
tp2287
a(I174
I121
I55
I114
I295
I403
I131
I96
tp2288
a(I189
I123
I56
I124
I289
I402
I132
I93
tp2289
a(I204
I112
I54
I112
I257
I379
I135
I77
tp2290
a(I192
I96
I54
I127
I309
I288
I134
I93
tp2291
a(I184
I96
I52
I125
I299
I332
I136
I92
tp2292
a(I186
I108
I54
I140
I395
I337
I127
I108
tp2293
a(I202
I113
I61
I160
I490
I346
I128
I113
tp2294
a(I196
I118
I63
I157
I507
I346
I121
I125
tp2295
a(I188
I112
I62
I151
I481
I434
I132
I112
tp2296
a(I186
I109
I65
I157
I483
I414
I133
I118
tp2297
a(I187
I119
I75
I144
I413
I392
I134
I98
tp2298
a(I181
I134
I76
I137
I354
I361
I118
I98
tp2299
a(I213
I127
I77
I138
I354
I363
I119
I136
tp2300
a(I214
I128
I78
I135
I379
I270
I122
I143
tp2301
a(I220
I140
I77
I129
I381
I247
I125
I134
tp2302
a(I224
I136
I67
I124
I378
I310
I121
I134
tp2303
a(I225
I124
I61
I92
I309
I291
I122
I145
tp2304
a(I194
I127
I59
I97
I311
I269
I124
I111
tp2305
a(I191
I122
I57
I87
I251
I253
I108
I103
tp2306
a(I201
I115
I54
I88
I235
I263
I126
I127
tp2307
a(I197
I100
I53
I103
I311
I298
I130
I128
tp2308
a(I171
I96
I51
I118
I327
I302
I134
I112
tp2309
a(I177
I120
I68
I123
I364
I323
I152
I114
tp2310
a(I181
I117
I69
I123
I374
I334
I159
I124
tp2311
a(I211
I111
I70
I124
I391
I342
I144
I109
tp2312
a(I206
I108
I71
I107
I317
I256
I134
I110
tp2313
asS'left'
p2314
(lp2315
(I53
I24
I31
I76
I97
I113
I66
I25
tp2316
a(I72
I26
I30
I73
I92
I116
I71
I26
tp2317
a(I70
I24
I32
I64
I91
I104
I70
I26
tp2318
a(I75
I25
I32
I68
I89
I99
I70
I28
tp2319
a(I74
I26
I35
I64
I91
I100
I72
I27
tp2320
a(I82
I28
I33
I60
I82
I92
I67
I29
tp2321
a(I68
I31
I35
I60
I91
I95
I68
I28
tp2322
a(I61
I34
I37
I67
I95
I109
I70
I29
tp2323
a(I61
I34
I36
I60
I93
I117
I72
I28
tp2324
a(I60
I31
I35
I57
I90
I120
I70
I28
tp2325
a(I82
I32
I35
I56
I89
I126
I71
I29
tp2326
a(I84
I31
I33
I55
I82
I124
I69
I30
tp2327
a(I84
I27
I26
I59
I85
I121
I72
I29
tp2328
a(I81
I27
I28
I69
I87
I119
I70
I29
tp2329
a(I90
I30
I24
I72
I87
I114
I67
I30
tp2330
a(I65
I27
I22
I73
I88
I119
I72
I30
tp2331
a(I56
I25
I23
I76
I88
I126
I77
I30
tp2332
a(I55
I25
I24
I68
I75
I115
I71
I30
tp2333
a(I86
I30
I21
I66
I83
I109
I69
I31
tp2334
a(I87
I28
I24
I70
I85
I111
I67
I29
tp2335
a(I88
I29
I28
I71
I84
I101
I61
I25
tp2336
a(I89
I27
I26
I72
I92
I99
I54
I23
tp2337
a(I92
I28
I26
I74
I99
I109
I63
I25
tp2338
a(I70
I27
I29
I70
I94
I114
I63
I24
tp2339
a(I58
I26
I27
I73
I97
I110
I64
I25
tp2340
a(I56
I26
I23
I76
I102
I107
I64
I27
tp2341
a(I56
I27
I24
I77
I96
I103
I64
I26
tp2342
a(I61
I27
I25
I73
I89
I96
I61
I22
tp2343
a(I52
I26
I23
I76
I87
I87
I58
I25
tp2344
a(I51
I28
I24
I64
I81
I97
I60
I26
tp2345
a(I55
I27
I24
I57
I74
I99
I63
I25
tp2346
a(I62
I26
I24
I50
I76
I90
I60
I26
tp2347
a(I63
I27
I22
I55
I76
I87
I55
I26
tp2348
a(I75
I28
I22
I56
I91
I103
I59
I24
tp2349
a(I87
I29
I23
I58
I95
I105
I63
I24
tp2350
a(I97
I29
I24
I58
I97
I109
I69
I26
tp2351
a(I92
I32
I26
I61
I96
I112
I71
I28
tp2352
a(I85
I31
I27
I56
I97
I107
I77
I30
tp2353
a(I75
I27
I28
I56
I97
I140
I159
I36
tp2354
a(I61
I27
I29
I58
I89
I132
I165
I36
tp2355
a(I43
I26
I28
I59
I90
I130
I164
I36
tp2356
a(I43
I23
I26
I61
I88
I134
I165
I34
tp2357
a(I56
I23
I28
I72
I88
I152
I167
I34
tp2358
a(I57
I24
I26
I73
I72
I116
I94
I24
tp2359
a(I55
I22
I26
I73
I81
I118
I79
I22
tp2360
a(I60
I22
I27
I72
I75
I117
I76
I21
tp2361
a(I62
I23
I29
I68
I78
I117
I74
I21
tp2362
a(I58
I25
I29
I57
I74
I95
I62
I21
tp2363
a(I58
I25
I27
I57
I75
I90
I57
I20
tp2364
a(I59
I25
I27
I54
I65
I87
I62
I23
tp2365
a(I56
I23
I30
I59
I75
I119
I66
I25
tp2366
a(I74
I23
I30
I67
I89
I116
I63
I26
tp2367
a(I74
I19
I29
I71
I91
I119
I71
I30
tp2368
a(I77
I23
I31
I65
I87
I120
I71
I32
tp2369
a(I78
I24
I32
I62
I93
I126
I70
I30
tp2370
a(I73
I24
I29
I61
I100
I95
I60
I28
tp2371
a(I54
I24
I28
I62
I94
I91
I59
I28
tp2372
a(I61
I26
I30
I57
I92
I86
I49
I24
tp2373
a(I64
I24
I29
I57
I99
I99
I51
I23
tp2374
a(I81
I26
I28
I55
I93
I90
I48
I24
tp2375
a(I81
I28
I28
I58
I82
I90
I56
I28
tp2376
a(I79
I27
I29
I65
I75
I110
I66
I28
tp2377
a(I80
I27
I29
I67
I80
I111
I68
I27
tp2378
a(I74
I28
I30
I68
I80
I100
I65
I26
tp2379
a(I51
I27
I32
I70
I78
I100
I66
I26
tp2380
a(I60
I31
I33
I66
I75
I103
I61
I24
tp2381
a(I68
I32
I32
I47
I71
I86
I53
I23
tp2382
a(I61
I30
I29
I59
I69
I93
I64
I26
tp2383
a(I62
I29
I28
I62
I69
I97
I70
I27
tp2384
a(I70
I27
I26
I64
I71
I101
I83
I26
tp2385
a(I69
I22
I25
I63
I80
I102
I87
I27
tp2386
a(I62
I23
I25
I68
I105
I153
I95
I28
tp2387
a(I56
I23
I23
I61
I108
I150
I89
I26
tp2388
a(I55
I21
I24
I59
I102
I143
I83
I24
tp2389
a(I49
I22
I24
I53
I103
I152
I80
I24
tp2390
a(I52
I20
I21
I55
I99
I150
I79
I23
tp2391
a(I54
I20
I24
I66
I81
I113
I82
I25
tp2392
a(I54
I24
I27
I66
I83
I113
I80
I27
tp2393
a(I56
I25
I27
I67
I84
I118
I80
I28
tp2394
a(I60
I25
I26
I69
I83
I139
I93
I34
tp2395
a(I53
I28
I26
I67
I82
I139
I93
I34
tp2396
a(I51
I27
I27
I60
I73
I132
I82
I32
tp2397
a(I54
I26
I27
I52
I67
I136
I85
I31
tp2398
a(I64
I25
I27
I49
I72
I140
I86
I30
tp2399
a(I57
I26
I28
I57
I84
I114
I59
I22
tp2400
a(I52
I23
I27
I57
I81
I113
I52
I20
tp2401
a(I52
I27
I28
I51
I90
I112
I51
I22
tp2402
a(I45
I26
I26
I55
I91
I107
I48
I21
tp2403
a(I28
I25
I30
I62
I88
I100
I50
I24
tp2404
a(I24
I24
I29
I58
I88
I99
I54
I25
tp2405
a(I63
I30
I32
I60
I99
I113
I61
I27
tp2406
a(I66
I27
I28
I58
I93
I106
I58
I25
tp2407
a(I67
I27
I33
I62
I96
I111
I57
I25
tp2408
a(I69
I27
I31
I60
I96
I111
I57
I24
tp2409
a(I75
I29
I31
I55
I89
I107
I59
I25
tp2410
a(I57
I23
I31
I58
I101
I96
I51
I23
tp2411
a(I52
I25
I31
I58
I102
I99
I60
I28
tp2412
a(I51
I25
I25
I52
I95
I117
I76
I29
tp2413
a(I49
I25
I24
I54
I103
I121
I77
I29
tp2414
a(I39
I23
I22
I64
I101
I128
I74
I29
tp2415
a(I26
I22
I22
I67
I76
I128
I75
I30
tp2416
a(I27
I21
I23
I66
I73
I131
I73
I29
tp2417
a(I25
I19
I24
I64
I78
I114
I58
I26
tp2418
a(I25
I20
I26
I64
I68
I114
I56
I25
tp2419
a(I24
I21
I28
I56
I74
I137
I70
I28
tp2420
a(I22
I20
I28
I47
I80
I133
I71
I28
tp2421
a(I20
I18
I26
I47
I76
I126
I68
I25
tp2422
a(I21
I23
I25
I46
I80
I134
I73
I27
tp2423
a(I20
I22
I25
I43
I80
I132
I73
I27
tp2424
a(I23
I22
I24
I43
I75
I100
I75
I27
tp2425
a(I22
I22
I23
I44
I77
I113
I108
I27
tp2426
a(I22
I24
I24
I44
I85
I113
I113
I29
tp2427
a(I22
I21
I26
I48
I80
I100
I114
I29
tp2428
a(I22
I22
I29
I48
I82
I102
I121
I31
tp2429
a(I19
I22
I28
I70
I88
I102
I114
I30
tp2430
a(I20
I22
I29
I76
I90
I91
I82
I30
tp2431
a(I21
I21
I27
I78
I84
I92
I75
I27
tp2432
a(I20
I19
I26
I76
I83
I91
I69
I28
tp2433
a(I22
I18
I26
I74
I83
I103
I64
I28
tp2434
a(I24
I21
I28
I54
I75
I104
I64
I28
tp2435
a(I24
I20
I28
I49
I81
I107
I68
I27
tp2436
a(I25
I23
I31
I50
I95
I113
I73
I29
tp2437
a(I26
I25
I34
I54
I99
I111
I73
I30
tp2438
a(I24
I25
I32
I54
I101
I102
I67
I26
tp2439
a(I22
I23
I31
I60
I102
I101
I70
I26
tp2440
a(I22
I23
I31
I65
I105
I111
I71
I26
tp2441
a(I23
I20
I30
I71
I90
I108
I72
I27
tp2442
a(I23
I19
I28
I79
I97
I116
I72
I25
tp2443
a(I25
I20
I30
I80
I111
I122
I75
I29
tp2444
a(I24
I22
I30
I76
I110
I121
I70
I29
tp2445
a(I25
I23
I31
I71
I96
I105
I68
I30
tp2446
a(I22
I23
I30
I59
I100
I105
I67
I28
tp2447
a(I22
I22
I33
I49
I91
I96
I64
I28
tp2448
a(I19
I22
I32
I52
I75
I87
I58
I25
tp2449
a(I23
I22
I34
I64
I83
I83
I58
I23
tp2450
a(I22
I22
I33
I65
I85
I85
I58
I21
tp2451
a(I23
I21
I34
I68
I85
I100
I59
I22
tp2452
a(I25
I21
I32
I66
I84
I107
I60
I23
tp2453
a(I24
I21
I28
I72
I77
I106
I62
I23
tp2454
a(I22
I22
I27
I61
I71
I112
I61
I25
tp2455
a(I22
I22
I26
I60
I71
I110
I59
I25
tp2456
a(I22
I23
I25
I58
I64
I102
I59
I24
tp2457
a(I19
I25
I22
I59
I58
I99
I56
I24
tp2458
a(I20
I24
I28
I51
I72
I119
I59
I25
tp2459
a(I20
I23
I27
I52
I74
I125
I64
I22
tp2460
a(I23
I23
I28
I54
I77
I126
I63
I24
tp2461
a(I21
I26
I28
I61
I77
I124
I62
I23
tp2462
a(I22
I24
I29
I61
I79
I127
I65
I22
tp2463
a(I24
I24
I24
I56
I73
I110
I60
I22
tp2464
a(I23
I23
I24
I55
I71
I105
I56
I23
tp2465
a(I24
I23
I24
I53
I69
I105
I59
I26
tp2466
a(I25
I22
I24
I42
I73
I105
I57
I28
tp2467
a(I24
I21
I25
I42
I72
I102
I60
I29
tp2468
a(I22
I22
I27
I52
I74
I104
I66
I32
tp2469
a(I23
I23
I28
I55
I83
I110
I74
I34
tp2470
a(I19
I23
I27
I57
I90
I119
I72
I32
tp2471
a(I561
I154
I40
I177
I162
I309
I155
I60
tp2472
a(I618
I159
I35
I128
I117
I297
I143
I68
tp2473
a(I671
I171
I38
I124
I118
I287
I149
I71
tp2474
a(I679
I175
I40
I135
I129
I288
I139
I79
tp2475
a(I673
I173
I42
I130
I117
I221
I119
I78
tp2476
a(I588
I153
I43
I111
I101
I221
I125
I73
tp2477
a(I549
I144
I47
I111
I108
I241
I129
I62
tp2478
a(I566
I137
I47
I106
I104
I255
I132
I62
tp2479
a(I544
I121
I44
I90
I89
I251
I124
I49
tp2480
a(I540
I116
I41
I86
I84
I243
I123
I50
tp2481
a(I556
I115
I41
I111
I100
I260
I116
I52
tp2482
a(I528
I100
I38
I120
I89
I232
I147
I53
tp2483
a(I423
I86
I35
I124
I89
I221
I147
I54
tp2484
a(I430
I87
I40
I130
I89
I212
I150
I52
tp2485
a(I530
I121
I45
I131
I92
I315
I173
I52
tp2486
a(I478
I111
I42
I115
I77
I292
I175
I48
tp2487
a(I488
I113
I46
I104
I86
I322
I158
I48
tp2488
a(I494
I114
I45
I103
I86
I325
I145
I43
tp2489
a(I486
I115
I44
I105
I90
I325
I145
I44
tp2490
a(I372
I72
I41
I111
I93
I237
I129
I41
tp2491
a(I490
I109
I53
I113
I110
I314
I127
I51
tp2492
a(I479
I107
I48
I107
I110
I276
I123
I56
tp2493
a(I477
I103
I50
I127
I127
I274
I130
I59
tp2494
a(I470
I101
I52
I129
I129
I281
I136
I59
tp2495
a(I618
I152
I53
I125
I130
I272
I124
I74
tp2496
a(I571
I134
I42
I124
I121
I192
I122
I71
tp2497
a(I586
I140
I46
I129
I121
I264
I125
I69
tp2498
a(I633
I144
I44
I108
I105
I256
I130
I71
tp2499
a(I720
I165
I40
I98
I100
I264
I117
I75
tp2500
a(I598
I127
I37
I122
I102
I260
I118
I62
tp2501
a(I558
I124
I36
I125
I102
I262
I136
I59
tp2502
a(I574
I127
I30
I116
I103
I195
I122
I60
tp2503
a(I582
I132
I31
I115
I103
I275
I180
I58
tp2504
a(I502
I120
I32
I115
I103
I259
I188
I54
tp2505
a(I446
I111
I36
I108
I106
I264
I191
I52
tp2506
a(I492
I110
I37
I102
I96
I255
I185
I53
tp2507
a(I518
I115
I42
I116
I101
I257
I186
I56
tp2508
a(I459
I115
I45
I116
I95
I151
I118
I53
tp2509
a(I441
I113
I46
I119
I96
I149
I108
I52
tp2510
a(I434
I110
I44
I105
I87
I162
I129
I52
tp2511
a(I462
I128
I48
I130
I103
I159
I116
I54
tp2512
a(I425
I122
I45
I126
I97
I151
I112
I49
tp2513
a(I492
I126
I45
I125
I97
I156
I123
I55
tp2514
a(I516
I120
I43
I123
I97
I205
I136
I55
tp2515
a(I531
I123
I42
I120
I93
I186
I113
I57
tp2516
a(I468
I109
I37
I116
I85
I185
I119
I52
tp2517
a(I444
I105
I38
I111
I81
I175
I124
I47
tp2518
a(I349
I89
I40
I121
I88
I193
I133
I44
tp2519
a(I368
I95
I45
I126
I92
I139
I116
I47
tp2520
a(I377
I99
I46
I133
I94
I146
I124
I45
tp2521
a(I390
I102
I51
I110
I93
I148
I123
I51
tp2522
a(I385
I95
I48
I112
I89
I148
I119
I52
tp2523
a(I504
I116
I53
I117
I111
I148
I149
I55
tp2524
a(I551
I138
I52
I120
I113
I144
I153
I58
tp2525
a(I545
I137
I54
I114
I117
I169
I151
I57
tp2526
a(I535
I139
I52
I127
I121
I190
I157
I56
tp2527
a(I524
I139
I54
I121
I121
I200
I166
I55
tp2528
a(I436
I120
I47
I113
I106
I187
I131
I48
tp2529
a(I359
I93
I50
I109
I105
I193
I125
I41
tp2530
a(I435
I110
I51
I119
I109
I185
I140
I48
tp2531
a(I433
I102
I53
I106
I100
I221
I146
I49
tp2532
a(I482
I105
I51
I109
I103
I229
I138
I50
tp2533
a(I559
I142
I54
I96
I90
I241
I122
I59
tp2534
a(I552
I141
I51
I108
I93
I244
I121
I58
tp2535
a(I495
I128
I46
I125
I106
I250
I97
I56
tp2536
a(I516
I136
I46
I129
I111
I211
I70
I56
tp2537
a(I472
I135
I46
I137
I115
I224
I179
I56
tp2538
a(I345
I99
I40
I141
I118
I208
I186
I47
tp2539
a(I347
I95
I38
I131
I119
I267
I202
I47
tp2540
a(I520
I136
I40
I102
I95
I252
I199
I55
tp2541
a(I508
I128
I34
I97
I83
I260
I202
I52
tp2542
a(I519
I131
I36
I100
I77
I249
I114
I51
tp2543
a(I522
I128
I38
I105
I77
I253
I111
I50
tp2544
a(I495
I126
I44
I106
I68
I255
I151
I52
tp2545
a(I291
I73
I44
I105
I69
I265
I156
I41
tp2546
a(I251
I63
I46
I104
I73
I274
I172
I39
tp2547
a(I253
I71
I47
I91
I78
I273
I177
I40
tp2548
a(I255
I71
I48
I78
I78
I270
I174
I40
tp2549
a(I249
I69
I40
I75
I80
I238
I135
I35
tp2550
a(I383
I79
I41
I92
I88
I243
I137
I47
tp2551
a(I416
I85
I40
I91
I88
I209
I113
I48
tp2552
a(I399
I71
I37
I86
I97
I301
I117
I47
tp2553
a(I460
I90
I35
I103
I113
I305
I117
I57
tp2554
a(I465
I92
I36
I106
I115
I282
I104
I59
tp2555
a(I456
I99
I33
I114
I124
I273
I98
I55
tp2556
a(I434
I98
I33
I115
I127
I278
I99
I54
tp2557
a(I473
I107
I35
I116
I117
I158
I94
I59
tp2558
a(I450
I102
I37
I101
I99
I151
I94
I54
tp2559
a(I467
I110
I37
I95
I99
I143
I81
I53
tp2560
a(I368
I98
I37
I81
I87
I157
I92
I46
tp2561
a(I426
I98
I39
I86
I86
I155
I90
I47
tp2562
a(I436
I101
I36
I84
I83
I157
I77
I41
tp2563
a(I398
I92
I37
I91
I92
I155
I87
I37
tp2564
a(I385
I83
I37
I97
I100
I165
I124
I39
tp2565
a(I388
I81
I41
I89
I100
I144
I119
I41
tp2566
a(I373
I92
I38
I88
I94
I137
I124
I42
tp2567
a(I371
I98
I40
I91
I93
I176
I127
I47
tp2568
a(I372
I95
I35
I102
I90
I183
I121
I46
tp2569
a(I416
I111
I36
I102
I78
I197
I100
I46
tp2570
a(I423
I112
I32
I105
I77
I193
I96
I46
tp2571
a(I446
I113
I35
I109
I86
I199
I96
I52
tp2572
a(I409
I98
I35
I111
I92
I207
I108
I48
tp2573
a(I418
I100
I38
I94
I97
I199
I113
I48
tp2574
a(I441
I100
I40
I96
I102
I184
I118
I53
tp2575
a(I457
I108
I39
I100
I102
I184
I118
I55
tp2576
a(I397
I96
I36
I99
I102
I202
I130
I51
tp2577
a(I424
I110
I37
I95
I97
I156
I119
I54
tp2578
a(I422
I111
I34
I100
I100
I158
I124
I54
tp2579
a(I345
I93
I36
I102
I110
I149
I107
I49
tp2580
a(I304
I83
I37
I96
I106
I156
I117
I47
tp2581
a(I335
I87
I53
I98
I111
I147
I108
I50
tp2582
a(I498
I103
I56
I106
I116
I156
I109
I59
tp2583
a(I517
I104
I56
I103
I107
I151
I107
I61
tp2584
a(I572
I128
I64
I109
I100
I159
I125
I68
tp2585
a(I640
I148
I64
I107
I98
I147
I120
I73
tp2586
a(I644
I147
I52
I112
I89
I149
I142
I67
tp2587
a(I563
I134
I47
I104
I84
I147
I147
I62
tp2588
a(I579
I142
I51
I110
I89
I154
I141
I62
tp2589
a(I629
I150
I41
I102
I83
I158
I126
I59
tp2590
a(I632
I138
I41
I102
I84
I165
I139
I55
tp2591
a(I677
I154
I43
I92
I87
I149
I109
I63
tp2592
a(I643
I159
I47
I101
I86
I147
I102
I65
tp2593
a(I624
I151
I42
I94
I84
I168
I124
I64
tp2594
a(I530
I127
I41
I104
I90
I160
I127
I58
tp2595
a(I448
I117
I41
I104
I92
I163
I118
I56
tp2596
a(I336
I95
I39
I102
I86
I171
I128
I49
tp2597
a(I321
I75
I35
I105
I93
I162
I127
I45
tp2598
a(I333
I83
I37
I114
I92
I133
I105
I47
tp2599
a(I341
I84
I34
I102
I77
I145
I100
I46
tp2600
a(I349
I84
I36
I103
I80
I147
I90
I47
tp2601
a(I420
I97
I41
I107
I91
I159
I81
I52
tp2602
a(I409
I95
I42
I97
I86
I164
I89
I49
tp2603
a(I379
I88
I45
I88
I95
I192
I125
I50
tp2604
a(I352
I83
I49
I87
I99
I179
I127
I51
tp2605
a(I350
I87
I50
I92
I105
I178
I123
I51
tp2606
a(I264
I74
I45
I82
I100
I153
I118
I47
tp2607
a(I299
I79
I44
I81
I98
I150
I108
I46
tp2608
a(I334
I88
I41
I95
I90
I110
I62
I41
tp2609
a(I342
I89
I42
I93
I89
I136
I129
I44
tp2610
a(I359
I94
I41
I90
I87
I122
I134
I46
tp2611
a(I402
I99
I45
I96
I87
I161
I150
I50
tp2612
a(I411
I106
I54
I123
I96
I163
I154
I54
tp2613
a(I413
I105
I58
I115
I94
I163
I157
I55
tp2614
a(I418
I104
I56
I116
I97
I203
I122
I53
tp2615
a(I427
I98
I58
I128
I98
I211
I122
I50
tp2616
a(I400
I90
I58
I127
I95
I192
I106
I44
tp2617
a(I373
I80
I48
I99
I87
I197
I106
I42
tp2618
a(I322
I71
I46
I93
I85
I197
I104
I40
tp2619
a(I374
I82
I41
I95
I83
I165
I129
I51
tp2620
a(I347
I83
I37
I78
I77
I161
I125
I54
tp2621
a(I350
I90
I38
I89
I81
I159
I121
I58
tp2622
a(I361
I89
I41
I90
I79
I160
I126
I57
tp2623
a(I406
I98
I39
I92
I83
I172
I137
I59
tp2624
a(I424
I104
I42
I93
I90
I144
I100
I54
tp2625
a(I677
I124
I133
I286
I215
I430
I233
I95
tp2626
a(I651
I113
I74
I289
I219
I407
I220
I84
tp2627
a(I621
I107
I66
I257
I222
I394
I179
I81
tp2628
a(I588
I104
I59
I204
I186
I310
I141
I81
tp2629
a(I565
I102
I43
I212
I188
I346
I152
I82
tp2630
a(I576
I103
I42
I214
I195
I307
I142
I76
tp2631
a(I676
I131
I41
I208
I189
I290
I138
I88
tp2632
a(I676
I135
I42
I206
I184
I295
I133
I88
tp2633
a(I597
I123
I47
I205
I201
I287
I155
I73
tp2634
a(I694
I140
I50
I232
I201
I261
I152
I82
tp2635
a(I680
I137
I66
I241
I201
I300
I164
I87
tp2636
a(I495
I103
I69
I256
I203
I306
I160
I73
tp2637
a(I505
I101
I72
I280
I220
I302
I154
I73
tp2638
a(I510
I103
I71
I270
I198
I280
I142
I75
tp2639
a(I357
I84
I68
I247
I196
I254
I131
I61
tp2640
a(I402
I90
I50
I224
I165
I201
I119
I56
tp2641
a(I388
I85
I48
I211
I191
I246
I124
I55
tp2642
a(I368
I83
I40
I251
I205
I271
I125
I54
tp2643
a(I388
I87
I39
I260
I208
I285
I149
I52
tp2644
a(I434
I80
I39
I237
I204
I286
I145
I50
tp2645
a(I446
I82
I43
I230
I209
I292
I148
I48
tp2646
a(I458
I86
I45
I233
I171
I248
I147
I46
tp2647
a(I475
I89
I47
I154
I129
I204
I140
I50
tp2648
a(I483
I91
I50
I144
I141
I283
I143
I53
tp2649
a(I528
I122
I54
I142
I142
I292
I143
I67
tp2650
a(I472
I118
I49
I159
I161
I297
I143
I70
tp2651
a(I512
I121
I49
I150
I169
I312
I152
I76
tp2652
a(I518
I120
I46
I149
I172
I362
I178
I80
tp2653
a(I553
I123
I44
I163
I178
I298
I148
I85
tp2654
a(I538
I93
I39
I165
I177
I294
I156
I79
tp2655
a(I548
I89
I43
I145
I155
I306
I175
I76
tp2656
a(I701
I128
I42
I134
I161
I316
I166
I91
tp2657
a(I695
I133
I45
I181
I205
I314
I140
I87
tp2658
a(I657
I125
I42
I194
I215
I297
I150
I82
tp2659
a(I668
I142
I45
I197
I224
I289
I136
I89
tp2660
a(I660
I142
I44
I200
I221
I271
I117
I88
tp2661
a(I468
I114
I45
I207
I250
I267
I130
I70
tp2662
a(I463
I108
I42
I183
I217
I192
I130
I70
tp2663
a(I554
I123
I45
I185
I222
I213
I120
I81
tp2664
a(I527
I109
I45
I186
I210
I218
I131
I73
tp2665
a(I515
I106
I45
I205
I215
I223
I124
I71
tp2666
a(I525
I104
I45
I207
I171
I226
I116
I70
tp2667
a(I531
I107
I51
I197
I175
I236
I110
I69
tp2668
a(I430
I92
I51
I186
I145
I221
I98
I54
tp2669
a(I423
I83
I48
I210
I151
I225
I91
I52
tp2670
a(I493
I99
I51
I198
I153
I240
I85
I60
tp2671
a(I488
I98
I50
I198
I143
I219
I81
I59
tp2672
a(I551
I102
I43
I200
I145
I246
I92
I64
tp2673
a(I554
I106
I43
I182
I148
I259
I109
I63
tp2674
a(I516
I108
I47
I149
I143
I258
I107
I63
tp2675
a(I452
I95
I44
I134
I138
I241
I108
I58
tp2676
a(I413
I85
I47
I226
I169
I225
I106
I54
tp2677
a(I409
I88
I48
I228
I166
I257
I157
I58
tp2678
a(I445
I81
I47
I233
I168
I249
I148
I59
tp2679
a(I435
I75
I46
I239
I174
I252
I156
I60
tp2680
a(I484
I79
I44
I283
I187
I252
I155
I60
tp2681
a(I661
I110
I42
I228
I185
I253
I158
I83
tp2682
a(I621
I102
I40
I220
I197
I189
I100
I77
tp2683
a(I597
I103
I45
I287
I201
I193
I111
I78
tp2684
a(I638
I106
I43
I282
I203
I208
I100
I77
tp2685
a(I598
I100
I43
I242
I188
I196
I99
I77
tp2686
a(I397
I66
I43
I225
I178
I309
I127
I54
tp2687
a(I364
I64
I43
I237
I176
I320
I131
I58
tp2688
a(I339
I56
I37
I145
I164
I326
I128
I54
tp2689
a(I401
I93
I43
I141
I151
I312
I122
I72
tp2690
a(I454
I99
I46
I137
I155
I317
I122
I82
tp2691
a(I511
I104
I49
I175
I148
I220
I94
I89
tp2692
a(I514
I107
I52
I171
I153
I204
I97
I90
tp2693
a(I532
I113
I55
I160
I145
I180
I85
I94
tp2694
a(I437
I82
I50
I170
I148
I189
I113
I81
tp2695
a(I431
I83
I50
I173
I158
I190
I120
I71
tp2696
a(I367
I78
I46
I151
I150
I212
I128
I62
tp2697
a(I345
I70
I45
I162
I154
I203
I124
I55
tp2698
a(I376
I67
I45
I174
I164
I204
I129
I51
tp2699
a(I418
I76
I46
I179
I174
I207
I105
I57
tp2700
a(I419
I76
I47
I199
I181
I246
I92
I57
tp2701
a(I479
I81
I50
I185
I188
I242
I98
I59
tp2702
a(I516
I87
I49
I163
I170
I254
I107
I63
tp2703
a(I489
I84
I48
I181
I188
I263
I107
I66
tp2704
a(I590
I105
I50
I172
I192
I268
I110
I79
tp2705
a(I575
I107
I47
I157
I187
I235
I113
I80
tp2706
a(I522
I104
I44
I161
I181
I218
I107
I78
tp2707
a(I598
I112
I46
I163
I183
I217
I101
I89
tp2708
a(I591
I111
I43
I167
I167
I201
I98
I85
tp2709
a(I458
I84
I45
I211
I160
I214
I113
I72
tp2710
a(I432
I73
I49
I215
I158
I217
I120
I71
tp2711
a(I515
I91
I48
I222
I160
I216
I131
I77
tp2712
a(I394
I75
I43
I219
I154
I206
I130
I64
tp2713
a(I497
I91
I43
I230
I169
I262
I134
I81
tp2714
a(I490
I89
I38
I216
I185
I270
I127
I78
tp2715
a(I509
I89
I33
I207
I182
I275
I121
I76
tp2716
a(I466
I81
I31
I200
I182
I288
I110
I72
tp2717
a(I465
I82
I32
I205
I190
I295
I110
I72
tp2718
a(I363
I72
I33
I167
I168
I264
I121
I53
tp2719
a(I425
I79
I32
I140
I136
I249
I115
I58
tp2720
a(I412
I79
I33
I154
I132
I239
I117
I61
tp2721
a(I368
I69
I37
I174
I129
I254
I110
I58
tp2722
a(I380
I69
I37
I168
I117
I245
I112
I58
tp2723
a(I377
I65
I37
I169
I132
I224
I90
I59
tp2724
a(I318
I64
I37
I162
I139
I217
I107
I54
tp2725
a(I305
I64
I35
I194
I148
I209
I103
I49
tp2726
a(I334
I63
I32
I187
I157
I170
I108
I51
tp2727
a(I412
I81
I35
I211
I160
I195
I114
I65
tp2728
a(I483
I94
I39
I223
I149
I207
I131
I83
tp2729
a(I484
I94
I40
I231
I150
I212
I116
I84
tp2730
a(I493
I92
I40
I195
I139
I250
I127
I88
tp2731
a(I497
I96
I41
I213
I147
I277
I126
I91
tp2732
a(I422
I80
I39
I194
I143
I262
I116
I80
tp2733
a(I345
I66
I47
I198
I163
I291
I119
I62
tp2734
a(I322
I60
I47
I211
I165
I280
I134
I58
tp2735
a(I339
I67
I51
I209
I165
I294
I154
I67
tp2736
a(I351
I73
I54
I242
I156
I266
I159
I64
tp2737
a(I354
I76
I53
I255
I156
I269
I161
I64
tp2738
a(I354
I75
I47
I240
I151
I239
I150
I66
tp2739
a(I350
I75
I48
I218
I153
I234
I139
I66
tp2740
a(I307
I70
I44
I223
I157
I169
I105
I52
tp2741
a(I334
I63
I41
I148
I144
I179
I98
I57
tp2742
a(I396
I71
I45
I120
I162
I268
I124
I67
tp2743
a(I392
I67
I41
I153
I157
I264
I142
I64
tp2744
a(I432
I72
I42
I171
I167
I273
I146
I65
tp2745
a(I491
I79
I42
I174
I165
I294
I150
I69
tp2746
a(I456
I76
I41
I183
I174
I304
I147
I65
tp2747
a(I418
I75
I40
I188
I166
I237
I139
I59
tp2748
a(I544
I88
I41
I161
I158
I236
I117
I81
tp2749
a(I510
I85
I38
I163
I145
I227
I110
I79
tp2750
a(I469
I80
I38
I155
I153
I200
I101
I77
tp2751
a(I506
I86
I40
I172
I140
I166
I93
I76
tp2752
a(I634
I126
I41
I177
I133
I201
I85
I85
tp2753
a(I559
I123
I40
I205
I152
I213
I98
I73
tp2754
a(I606
I127
I41
I198
I174
I212
I94
I82
tp2755
a(I628
I133
I41
I204
I175
I217
I97
I82
tp2756
a(I597
I129
I43
I182
I184
I221
I111
I82
tp2757
a(I436
I80
I37
I173
I183
I178
I98
I68
tp2758
a(I432
I77
I42
I145
I168
I149
I85
I61
tp2759
a(I386
I67
I45
I165
I159
I159
I104
I51
tp2760
a(I397
I66
I47
I168
I154
I172
I122
I58
tp2761
a(I593
I104
I43
I170
I146
I191
I116
I92
tp2762
a(I617
I109
I46
I174
I150
I193
I115
I95
tp2763
a(I621
I112
I43
I194
I162
I229
I126
I93
tp2764
a(I657
I119
I42
I182
I146
I271
I114
I94
tp2765
a(I654
I123
I40
I173
I144
I267
I96
I90
tp2766
a(I488
I95
I43
I200
I159
I250
I107
I56
tp2767
a(I484
I93
I45
I204
I156
I253
I110
I53
tp2768
a(I455
I90
I47
I209
I164
I224
I96
I55
tp2769
a(I408
I83
I44
I198
I170
I248
I137
I59
tp2770
a(I520
I79
I46
I196
I171
I239
I134
I68
tp2771
a(I517
I84
I42
I167
I156
I247
I126
I71
tp2772
a(I499
I81
I42
I179
I162
I234
I125
I68
tp2773
a(I503
I78
I42
I155
I147
I241
I124
I71
tp2774
a(I489
I75
I42
I164
I143
I159
I75
I67
tp2775
a(I394
I72
I46
I179
I147
I190
I92
I67
tp2776
a(I408
I68
I49
I180
I156
I184
I85
I63
tp2777
a(I626
I109
I53
I160
I143
I182
I86
I84
tp2778
a(I617
I109
I51
I176
I138
I272
I102
I82
tp2779
as.