(dp0
S'right'
p1
(lp2
(I195
I94
I91
I110
I483
I662
I188
I138
tp3
a(I207
I86
I106
I121
I491
I580
I180
I132
tp4
a(I156
I83
I95
I123
I427
I533
I167
I131
tp5
a(I147
I79
I96
I120
I413
I525
I161
I128
tp6
a(I154
I79
I96
I111
I393
I501
I163
I95
tp7
a(I154
I75
I100
I102
I398
I439
I191
I93
tp8
a(I137
I84
I84
I91
I403
I461
I210
I94
tp9
a(I163
I76
I84
I98
I444
I458
I203
I81
tp10
a(I166
I74
I83
I102
I490
I434
I207
I82
tp11
a(I153
I77
I98
I114
I493
I452
I209
I82
tp12
a(I171
I85
I96
I123
I474
I493
I174
I85
tp13
a(I170
I86
I100
I134
I474
I516
I163
I87
tp14
a(I161
I87
I105
I139
I442
I518
I160
I91
tp15
a(I163
I90
I103
I142
I382
I557
I170
I87
tp16
a(I162
I86
I90
I135
I331
I537
I160
I83
tp17
a(I140
I79
I88
I133
I345
I517
I167
I76
tp18
a(I139
I68
I80
I122
I400
I617
I154
I74
tp19
a(I102
I64
I85
I113
I451
I664
I155
I73
tp20
a(I218
I58
I91
I115
I480
I646
I158
I94
tp21
a(I229
I62
I96
I117
I488
I676
I166
I112
tp22
a(I238
I59
I97
I114
I471
I663
I158
I114
tp23
a(I238
I60
I105
I117
I399
I572
I165
I111
tp24
a(I242
I65
I97
I119
I323
I532
I162
I108
tp25
a(I148
I78
I116
I169
I300
I527
I170
I96
tp26
a(I142
I79
I117
I172
I267
I517
I173
I83
tp27
a(I138
I77
I117
I178
I300
I567
I176
I81
tp28
a(I149
I80
I116
I173
I277
I582
I178
I88
tp29
a(I144
I78
I112
I170
I366
I593
I182
I87
tp30
a(I138
I77
I87
I115
I405
I606
I161
I78
tp31
a(I149
I84
I79
I114
I451
I598
I149
I70
tp32
a(I159
I97
I87
I107
I460
I629
I154
I84
tp33
a(I148
I101
I100
I122
I505
I606
I146
I80
tp34
a(I152
I100
I101
I122
I457
I593
I154
I78
tp35
a(I161
I89
I99
I137
I436
I653
I158
I78
tp36
a(I147
I82
I103
I127
I393
I625
I178
I78
tp37
a(I124
I69
I99
I127
I359
I614
I174
I61
tp38
a(I158
I56
I83
I109
I382
I625
I173
I63
tp39
a(I177
I61
I90
I113
I383
I615
I174
I94
tp40
a(I170
I65
I101
I97
I348
I561
I173
I93
tp41
a(I166
I61
I103
I103
I368
I591
I163
I97
tp42
a(I180
I68
I104
I107
I357
I527
I158
I100
tp43
a(I146
I70
I108
I109
I314
I537
I157
I99
tp44
a(I121
I72
I105
I116
I324
I588
I146
I71
tp45
a(I153
I76
I110
I117
I439
I549
I146
I79
tp46
a(I150
I87
I111
I115
I436
I530
I133
I71
tp47
a(I133
I80
I106
I106
I435
I553
I137
I65
tp48
a(I155
I81
I99
I108
I478
I516
I145
I65
tp49
a(I158
I83
I100
I103
I464
I457
I139
I67
tp50
a(I121
I76
I86
I99
I394
I461
I136
I59
tp51
a(I138
I66
I85
I106
I389
I507
I146
I58
tp52
a(I141
I71
I90
I107
I418
I570
I162
I71
tp53
a(I122
I85
I101
I106
I382
I647
I152
I70
tp54
a(I114
I85
I101
I106
I435
I714
I164
I69
tp55
a(I118
I96
I120
I119
I429
I731
I179
I67
tp56
a(I131
I105
I128
I126
I495
I735
I249
I81
tp57
a(I149
I115
I142
I157
I533
I701
I240
I75
tp58
a(I144
I105
I133
I157
I504
I663
I249
I74
tp59
a(I142
I99
I129
I148
I456
I605
I255
I77
tp60
a(I155
I88
I108
I138
I446
I623
I250
I81
tp61
a(I126
I84
I101
I136
I383
I675
I184
I67
tp62
a(I105
I74
I72
I105
I316
I652
I200
I66
tp63
a(I135
I76
I74
I108
I306
I711
I192
I68
tp64
a(I148
I79
I77
I115
I310
I699
I186
I62
tp65
a(I131
I90
I79
I119
I334
I692
I181
I55
tp66
a(I136
I87
I84
I115
I332
I624
I197
I57
tp67
a(I149
I85
I92
I108
I346
I621
I190
I54
tp68
a(I125
I84
I92
I106
I357
I529
I189
I53
tp69
a(I113
I86
I86
I113
I474
I551
I192
I60
tp70
a(I116
I74
I82
I106
I440
I527
I202
I68
tp71
a(I125
I89
I79
I141
I455
I522
I198
I74
tp72
a(I108
I83
I72
I158
I450
I499
I195
I84
tp73
a(I105
I82
I75
I158
I461
I521
I193
I82
tp74
a(I119
I99
I89
I158
I411
I621
I193
I91
tp75
a(I113
I98
I92
I158
I420
I649
I200
I84
tp76
a(I90
I80
I87
I119
I389
I659
I186
I77
tp77
a(I86
I96
I91
I116
I391
I662
I190
I76
tp78
a(I96
I100
I92
I120
I410
I664
I200
I80
tp79
a(I95
I78
I82
I117
I361
I616
I189
I68
tp80
a(I111
I86
I95
I121
I386
I595
I176
I76
tp81
a(I138
I87
I90
I127
I402
I635
I174
I84
tp82
a(I148
I80
I85
I110
I404
I711
I163
I78
tp83
a(I153
I75
I84
I119
I373
I734
I163
I77
tp84
a(I142
I78
I92
I116
I366
I670
I179
I77
tp85
a(I153
I74
I80
I120
I356
I677
I171
I76
tp86
a(I158
I81
I93
I117
I368
I636
I173
I83
tp87
a(I158
I77
I102
I121
I350
I575
I184
I103
tp88
a(I148
I76
I102
I103
I343
I513
I200
I107
tp89
a(I170
I81
I98
I117
I337
I549
I193
I104
tp90
a(I152
I78
I99
I133
I335
I518
I199
I101
tp91
a(I137
I68
I91
I133
I372
I510
I208
I101
tp92
a(I131
I70
I83
I131
I401
I480
I190
I85
tp93
a(I140
I69
I78
I151
I445
I535
I191
I84
tp94
a(I115
I59
I81
I150
I466
I577
I195
I96
tp95
a(I118
I61
I87
I130
I513
I604
I195
I95
tp96
a(I112
I59
I85
I129
I480
I608
I194
I85
tp97
a(I147
I52
I84
I130
I445
I647
I205
I93
tp98
a(I142
I56
I88
I105
I412
I629
I181
I96
tp99
a(I143
I54
I81
I85
I385
I631
I166
I88
tp100
a(I138
I50
I66
I104
I435
I613
I175
I90
tp101
a(I157
I62
I78
I109
I419
I609
I175
I106
tp102
a(I130
I74
I93
I108
I432
I614
I169
I92
tp103
a(I124
I69
I91
I109
I457
I584
I168
I88
tp104
a(I124
I72
I96
I110
I456
I519
I183
I91
tp105
a(I136
I73
I97
I88
I332
I538
I162
I89
tp106
a(I106
I70
I99
I73
I472
I609
I175
I74
tp107
a(I96
I59
I85
I71
I464
I542
I184
I83
tp108
a(I135
I66
I119
I122
I480
I565
I214
I91
tp109
a(I133
I73
I130
I140
I483
I562
I206
I87
tp110
a(I120
I79
I133
I144
I518
I582
I225
I88
tp111
a(I128
I74
I129
I153
I483
I495
I199
I82
tp112
a(I131
I74
I134
I156
I481
I548
I186
I78
tp113
a(I123
I69
I108
I125
I465
I577
I196
I78
tp114
a(I142
I67
I97
I127
I498
I615
I198
I79
tp115
a(I148
I71
I98
I130
I504
I641
I196
I80
tp116
a(I149
I76
I95
I122
I429
I634
I201
I86
tp117
a(I162
I83
I92
I122
I439
I641
I212
I87
tp118
a(I141
I83
I88
I117
I424
I611
I180
I77
tp119
a(I122
I80
I78
I96
I402
I595
I174
I76
tp120
a(I120
I84
I86
I112
I357
I521
I166
I78
tp121
a(I129
I79
I85
I111
I373
I529
I172
I77
tp122
a(I109
I70
I81
I111
I378
I481
I165
I69
tp123
a(I115
I70
I85
I128
I364
I502
I151
I65
tp124
a(I115
I83
I95
I130
I374
I484
I169
I61
tp125
a(I117
I72
I82
I111
I366
I538
I159
I58
tp126
a(I118
I73
I78
I115
I345
I560
I153
I79
tp127
a(I125
I84
I82
I112
I325
I580
I153
I89
tp128
a(I126
I87
I78
I100
I389
I585
I205
I109
tp129
a(I129
I73
I70
I99
I381
I626
I202
I114
tp130
a(I127
I90
I88
I111
I376
I581
I206
I115
tp131
a(I115
I88
I94
I108
I376
I558
I220
I104
tp132
a(I138
I81
I89
I113
I410
I566
I228
I103
tp133
a(I131
I81
I89
I112
I325
I516
I202
I91
tp134
a(I123
I88
I88
I121
I320
I499
I189
I84
tp135
a(I129
I71
I74
I112
I325
I513
I186
I86
tp136
a(I143
I89
I71
I117
I372
I552
I176
I82
tp137
a(I119
I86
I70
I118
I385
I601
I179
I88
tp138
a(I137
I83
I72
I126
I398
I608
I161
I94
tp139
a(I150
I86
I74
I125
I366
I580
I166
I97
tp140
a(I145
I97
I76
I137
I382
I700
I184
I93
tp141
a(I128
I87
I75
I129
I333
I696
I178
I93
tp142
a(I125
I90
I75
I124
I320
I659
I182
I86
tp143
a(I111
I90
I75
I108
I341
I661
I190
I75
tp144
a(I104
I87
I87
I96
I453
I715
I196
I79
tp145
a(I102
I71
I79
I83
I443
I595
I196
I88
tp146
a(I97
I66
I76
I81
I431
I561
I210
I89
tp147
a(I100
I68
I79
I96
I415
I536
I214
I86
tp148
a(I103
I81
I97
I104
I428
I603
I212
I94
tp149
a(I97
I81
I84
I111
I311
I567
I213
I91
tp150
a(I98
I82
I89
I114
I340
I570
I198
I83
tp151
a(I99
I86
I98
I122
I372
I612
I198
I81
tp152
a(I108
I80
I100
I112
I445
I730
I209
I80
tp153
asS'relaxed'
p154
(lp155
(I21
I21
I28
I27
I28
I128
I47
I17
tp156
a(I20
I19
I27
I25
I28
I134
I49
I18
tp157
a(I21
I21
I31
I27
I20
I92
I46
I20
tp158
a(I21
I21
I31
I25
I28
I88
I46
I19
tp159
a(I19
I22
I29
I24
I33
I74
I30
I18
tp160
a(I19
I22
I30
I23
I36
I78
I30
I17
tp161
a(I21
I24
I31
I26
I37
I69
I34
I21
tp162
a(I22
I25
I28
I24
I37
I64
I35
I21
tp163
a(I21
I27
I28
I26
I37
I67
I35
I23
tp164
a(I23
I27
I35
I25
I44
I69
I35
I23
tp165
a(I23
I25
I36
I26
I49
I63
I30
I24
tp166
a(I21
I23
I41
I26
I58
I80
I24
I21
tp167
a(I17
I19
I44
I27
I67
I85
I27
I19
tp168
a(I17
I16
I44
I25
I67
I101
I29
I18
tp169
a(I16
I17
I39
I26
I59
I99
I29
I17
tp170
a(I17
I16
I37
I26
I53
I96
I27
I18
tp171
a(I16
I18
I30
I25
I41
I83
I28
I19
tp172
a(I18
I22
I25
I28
I27
I81
I25
I21
tp173
a(I18
I23
I22
I30
I18
I73
I26
I20
tp174
a(I19
I22
I23
I27
I18
I72
I28
I20
tp175
a(I19
I23
I24
I27
I20
I74
I33
I19
tp176
a(I18
I24
I30
I26
I22
I111
I34
I17
tp177
a(I20
I23
I32
I28
I22
I117
I37
I16
tp178
a(I21
I23
I32
I25
I23
I109
I36
I19
tp179
a(I20
I22
I32
I27
I25
I111
I36
I19
tp180
a(I21
I26
I33
I27
I26
I130
I39
I19
tp181
a(I21
I24
I29
I26
I26
I103
I40
I20
tp182
a(I18
I23
I26
I25
I26
I110
I37
I19
tp183
a(I16
I24
I27
I27
I27
I111
I37
I16
tp184
a(I17
I23
I26
I28
I24
I109
I34
I18
tp185
a(I16
I20
I24
I28
I26
I95
I28
I18
tp186
a(I18
I21
I24
I29
I25
I97
I25
I17
tp187
a(I17
I20
I24
I25
I25
I90
I26
I18
tp188
a(I19
I18
I22
I22
I23
I90
I30
I17
tp189
a(I19
I20
I21
I21
I24
I94
I33
I15
tp190
a(I18
I20
I23
I21
I22
I90
I31
I16
tp191
a(I18
I20
I25
I19
I24
I88
I32
I15
tp192
a(I19
I22
I25
I21
I23
I76
I31
I16
tp193
a(I18
I23
I27
I24
I25
I114
I31
I17
tp194
a(I18
I22
I32
I27
I24
I109
I29
I17
tp195
a(I18
I21
I33
I28
I25
I110
I30
I17
tp196
a(I18
I21
I31
I27
I26
I108
I29
I18
tp197
a(I18
I18
I31
I27
I26
I109
I28
I18
tp198
a(I18
I18
I31
I27
I24
I88
I24
I18
tp199
a(I19
I19
I27
I25
I26
I90
I24
I17
tp200
a(I17
I22
I27
I23
I24
I81
I24
I18
tp201
a(I18
I21
I28
I22
I21
I96
I26
I18
tp202
a(I17
I22
I29
I23
I19
I98
I27
I17
tp203
a(I19
I22
I31
I24
I20
I97
I29
I16
tp204
a(I19
I21
I30
I24
I19
I95
I31
I18
tp205
a(I19
I21
I26
I23
I19
I98
I31
I17
tp206
a(I20
I22
I29
I26
I20
I95
I32
I18
tp207
a(I20
I22
I28
I26
I21
I110
I32
I19
tp208
a(I19
I24
I26
I24
I23
I101
I30
I20
tp209
a(I18
I23
I25
I22
I25
I100
I29
I19
tp210
a(I19
I22
I28
I26
I26
I104
I29
I20
tp211
a(I18
I22
I24
I24
I26
I120
I26
I18
tp212
a(I18
I20
I24
I25
I26
I103
I25
I19
tp213
a(I20
I17
I24
I24
I26
I99
I25
I18
tp214
a(I21
I18
I24
I24
I25
I98
I21
I19
tp215
a(I21
I20
I28
I22
I22
I115
I26
I17
tp216
a(I21
I19
I28
I23
I22
I102
I29
I17
tp217
a(I20
I19
I28
I22
I22
I106
I31
I15
tp218
a(I18
I20
I28
I24
I19
I117
I33
I16
tp219
a(I17
I20
I27
I24
I17
I126
I35
I17
tp220
a(I17
I19
I24
I25
I18
I105
I30
I18
tp221
a(I18
I21
I27
I25
I23
I105
I26
I18
tp222
a(I18
I22
I30
I26
I26
I112
I28
I20
tp223
a(I20
I21
I30
I25
I32
I133
I33
I19
tp224
a(I20
I24
I33
I26
I33
I129
I35
I18
tp225
a(I19
I25
I33
I27
I34
I129
I36
I17
tp226
a(I21
I24
I32
I27
I31
I124
I36
I18
tp227
a(I21
I24
I30
I23
I29
I134
I36
I15
tp228
a(I20
I24
I30
I23
I23
I107
I31
I17
tp229
a(I19
I24
I31
I24
I22
I103
I28
I16
tp230
a(I19
I23
I30
I21
I21
I104
I28
I17
tp231
a(I18
I23
I28
I19
I20
I95
I29
I17
tp232
a(I21
I22
I28
I23
I21
I101
I27
I17
tp233
a(I21
I23
I27
I23
I24
I101
I29
I18
tp234
a(I21
I21
I23
I24
I23
I105
I30
I19
tp235
a(I20
I20
I22
I24
I23
I106
I29
I18
tp236
a(I19
I21
I23
I26
I26
I132
I30
I18
tp237
a(I15
I22
I24
I23
I23
I109
I29
I18
tp238
a(I16
I22
I27
I24
I22
I107
I25
I17
tp239
a(I15
I22
I29
I21
I23
I108
I26
I17
tp240
a(I16
I24
I28
I22
I24
I109
I27
I16
tp241
a(I17
I23
I27
I21
I22
I91
I28
I17
tp242
a(I19
I23
I29
I23
I24
I91
I27
I18
tp243
a(I19
I21
I28
I22
I23
I86
I27
I19
tp244
a(I19
I21
I25
I24
I22
I81
I26
I19
tp245
a(I19
I19
I26
I23
I19
I73
I24
I20
tp246
a(I21
I22
I28
I22
I20
I54
I21
I21
tp247
a(I21
I23
I32
I24
I20
I105
I27
I20
tp248
a(I20
I22
I32
I23
I21
I108
I27
I18
tp249
a(I21
I23
I32
I23
I21
I115
I29
I17
tp250
a(I21
I24
I34
I23
I24
I118
I31
I16
tp251
a(I19
I23
I33
I25
I25
I138
I35
I15
tp252
a(I18
I22
I26
I21
I28
I118
I32
I19
tp253
a(I18
I25
I26
I22
I26
I117
I32
I20
tp254
a(I19
I24
I28
I21
I26
I114
I30
I21
tp255
a(I19
I23
I29
I21
I24
I126
I29
I21
tp256
a(I19
I22
I31
I20
I24
I114
I29
I23
tp257
a(I21
I23
I35
I21
I20
I102
I30
I23
tp258
a(I21
I23
I37
I22
I22
I118
I31
I23
tp259
a(I20
I23
I33
I22
I25
I114
I33
I22
tp260
a(I18
I24
I31
I23
I24
I113
I32
I22
tp261
a(I18
I24
I31
I24
I23
I119
I27
I19
tp262
a(I17
I23
I25
I24
I24
I116
I26
I17
tp263
a(I18
I22
I24
I23
I23
I97
I24
I16
tp264
a(I18
I25
I28
I23
I22
I94
I23
I17
tp265
a(I21
I25
I27
I20
I24
I76
I22
I17
tp266
a(I21
I24
I26
I20
I24
I73
I22
I18
tp267
a(I20
I26
I27
I22
I23
I77
I20
I17
tp268
a(I19
I26
I26
I27
I23
I78
I26
I18
tp269
a(I18
I23
I25
I28
I22
I80
I25
I16
tp270
a(I18
I23
I25
I31
I21
I91
I26
I16
tp271
a(I17
I24
I24
I31
I22
I87
I29
I17
tp272
a(I17
I22
I24
I31
I24
I101
I31
I18
tp273
a(I17
I21
I24
I28
I23
I105
I30
I16
tp274
a(I20
I20
I25
I27
I23
I107
I30
I18
tp275
a(I18
I20
I26
I23
I23
I114
I33
I19
tp276
a(I18
I22
I26
I25
I21
I103
I31
I20
tp277
a(I18
I25
I27
I26
I22
I91
I31
I19
tp278
a(I18
I24
I28
I26
I21
I99
I28
I19
tp279
a(I15
I23
I29
I28
I25
I100
I31
I17
tp280
a(I17
I24
I27
I29
I25
I94
I29
I15
tp281
a(I18
I22
I29
I26
I25
I94
I28
I15
tp282
a(I19
I22
I32
I27
I25
I96
I31
I18
tp283
a(I20
I23
I32
I26
I29
I86
I30
I18
tp284
a(I20
I24
I30
I26
I27
I97
I31
I19
tp285
a(I21
I24
I32
I25
I26
I91
I31
I21
tp286
a(I20
I24
I30
I26
I26
I93
I32
I20
tp287
a(I21
I22
I27
I25
I23
I85
I31
I19
tp288
a(I21
I22
I25
I24
I19
I123
I34
I20
tp289
a(I23
I22
I24
I24
I20
I114
I33
I20
tp290
a(I22
I23
I23
I26
I20
I111
I32
I19
tp291
a(I22
I22
I22
I26
I20
I115
I37
I19
tp292
a(I20
I22
I22
I25
I20
I121
I35
I18
tp293
a(I19
I25
I21
I26
I21
I94
I31
I16
tp294
a(I20
I25
I25
I32
I20
I94
I31
I17
tp295
a(I19
I27
I25
I31
I23
I117
I31
I18
tp296
a(I20
I27
I26
I32
I34
I113
I24
I18
tp297
a(I20
I26
I27
I32
I36
I113
I24
I17
tp298
a(I20
I26
I27
I30
I36
I114
I25
I17
tp299
a(I18
I24
I25
I25
I36
I113
I24
I15
tp300
a(I19
I21
I25
I24
I35
I89
I23
I14
tp301
a(I19
I20
I25
I22
I24
I86
I23
I15
tp302
a(I19
I22
I24
I21
I25
I140
I31
I15
tp303
a(I20
I22
I28
I23
I25
I137
I32
I17
tp304
a(I20
I23
I30
I23
I26
I138
I32
I17
tp305
a(I19
I22
I31
I23
I25
I137
I32
I18
tp306
a(I19
I23
I30
I22
I25
I137
I31
I17
tp307
a(I18
I21
I32
I25
I25
I164
I49
I17
tp308
asS'stop'
p309
(lp310
(I557
I195
I162
I260
I247
I597
I689
I266
tp311
a(I464
I201
I160
I290
I248
I606
I659
I239
tp312
a(I463
I185
I149
I243
I216
I595
I674
I222
tp313
a(I407
I165
I152
I258
I212
I543
I729
I229
tp314
a(I355
I129
I126
I232
I203
I527
I736
I225
tp315
a(I373
I136
I153
I231
I194
I463
I710
I220
tp316
a(I350
I126
I175
I254
I236
I477
I705
I221
tp317
a(I353
I131
I174
I314
I234
I453
I672
I222
tp318
a(I440
I139
I211
I311
I266
I525
I634
I200
tp319
a(I409
I138
I208
I303
I257
I527
I575
I196
tp320
a(I421
I126
I185
I306
I256
I545
I581
I209
tp321
a(I473
I122
I166
I263
I194
I503
I603
I200
tp322
a(I478
I119
I170
I214
I210
I506
I575
I190
tp323
a(I414
I119
I118
I192
I171
I479
I548
I210
tp324
a(I427
I122
I122
I227
I179
I482
I516
I193
tp325
a(I395
I144
I142
I239
I185
I459
I493
I190
tp326
a(I340
I138
I140
I234
I184
I471
I469
I189
tp327
a(I341
I151
I167
I219
I169
I501
I509
I214
tp328
a(I320
I161
I187
I245
I178
I510
I563
I205
tp329
a(I391
I179
I188
I223
I170
I529
I695
I233
tp330
a(I374
I185
I176
I242
I178
I570
I733
I236
tp331
a(I446
I199
I204
I235
I189
I565
I801
I271
tp332
a(I447
I207
I178
I230
I195
I521
I785
I248
tp333
a(I511
I198
I159
I233
I200
I514
I846
I253
tp334
a(I539
I185
I157
I246
I205
I552
I815
I251
tp335
a(I564
I173
I157
I214
I193
I510
I852
I260
tp336
a(I520
I164
I130
I261
I186
I496
I863
I260
tp337
a(I527
I149
I123
I260
I181
I485
I845
I266
tp338
a(I459
I147
I125
I240
I166
I434
I794
I270
tp339
a(I393
I150
I121
I225
I171
I370
I745
I269
tp340
a(I354
I135
I116
I218
I172
I372
I684
I269
tp341
a(I382
I126
I105
I155
I190
I485
I571
I245
tp342
a(I346
I110
I120
I163
I178
I497
I594
I251
tp343
a(I353
I101
I111
I165
I191
I534
I544
I234
tp344
a(I323
I79
I120
I192
I201
I536
I538
I221
tp345
a(I319
I98
I134
I207
I207
I536
I558
I214
tp346
a(I311
I107
I138
I229
I222
I653
I599
I196
tp347
a(I416
I119
I141
I231
I239
I660
I620
I224
tp348
a(I487
I126
I151
I229
I239
I688
I602
I250
tp349
a(I510
I146
I167
I204
I220
I681
I634
I247
tp350
a(I588
I167
I166
I199
I241
I715
I630
I245
tp351
a(I566
I170
I180
I198
I234
I587
I668
I257
tp352
a(I567
I195
I195
I223
I245
I590
I666
I233
tp353
a(I566
I204
I207
I227
I259
I530
I734
I220
tp354
a(I562
I215
I208
I259
I277
I521
I714
I211
tp355
a(I487
I203
I221
I258
I276
I490
I705
I201
tp356
a(I514
I200
I222
I248
I277
I468
I659
I191
tp357
a(I439
I182
I204
I274
I263
I465
I682
I165
tp358
a(I368
I175
I189
I276
I241
I481
I624
I146
tp359
a(I342
I157
I184
I267
I228
I509
I632
I157
tp360
a(I344
I151
I189
I279
I221
I492
I613
I161
tp361
a(I311
I173
I171
I278
I192
I498
I565
I156
tp362
a(I397
I166
I167
I236
I183
I516
I488
I154
tp363
a(I451
I165
I162
I234
I184
I485
I486
I153
tp364
a(I460
I154
I148
I201
I175
I489
I430
I147
tp365
a(I450
I144
I114
I206
I158
I495
I379
I129
tp366
a(I476
I118
I135
I215
I185
I511
I389
I138
tp367
a(I434
I104
I141
I202
I204
I571
I452
I139
tp368
a(I389
I98
I147
I207
I203
I630
I477
I136
tp369
a(I356
I95
I156
I223
I218
I629
I494
I130
tp370
a(I378
I116
I154
I199
I216
I625
I513
I146
tp371
a(I372
I112
I151
I189
I191
I588
I515
I142
tp372
a(I365
I113
I145
I229
I166
I504
I499
I157
tp373
a(I403
I128
I152
I245
I168
I477
I503
I154
tp374
a(I430
I152
I143
I268
I154
I434
I518
I156
tp375
a(I424
I144
I157
I264
I166
I491
I529
I134
tp376
a(I446
I148
I150
I262
I171
I468
I508
I131
tp377
a(I445
I150
I151
I235
I182
I490
I506
I129
tp378
a(I461
I150
I154
I204
I173
I458
I481
I141
tp379
a(I440
I145
I159
I181
I187
I536
I492
I156
tp380
a(I451
I140
I147
I195
I183
I504
I452
I161
tp381
a(I392
I137
I144
I191
I185
I554
I517
I160
tp382
a(I367
I148
I151
I182
I177
I540
I511
I166
tp383
a(I338
I145
I143
I221
I203
I553
I484
I151
tp384
a(I398
I127
I130
I215
I184
I520
I472
I138
tp385
a(I402
I131
I135
I211
I167
I502
I506
I151
tp386
a(I412
I134
I137
I241
I183
I462
I491
I162
tp387
a(I427
I140
I145
I252
I185
I448
I490
I160
tp388
a(I381
I132
I144
I239
I155
I410
I470
I164
tp389
a(I364
I133
I165
I249
I164
I412
I446
I173
tp390
a(I375
I149
I190
I245
I179
I432
I514
I179
tp391
a(I426
I169
I217
I233
I176
I449
I460
I168
tp392
a(I436
I153
I207
I220
I167
I451
I437
I153
tp393
a(I464
I152
I204
I206
I175
I457
I480
I153
tp394
a(I441
I161
I200
I222
I180
I416
I497
I161
tp395
a(I422
I142
I169
I224
I169
I428
I407
I152
tp396
a(I385
I109
I126
I204
I158
I414
I437
I149
tp397
a(I349
I116
I146
I214
I168
I424
I466
I155
tp398
a(I366
I118
I156
I210
I179
I471
I515
I214
tp399
a(I367
I121
I150
I189
I186
I510
I538
I205
tp400
a(I371
I121
I150
I185
I183
I498
I603
I208
tp401
a(I366
I124
I174
I239
I181
I509
I620
I224
tp402
a(I472
I149
I161
I243
I196
I606
I585
I223
tp403
a(I465
I172
I176
I272
I181
I584
I545
I177
tp404
a(I458
I167
I170
I261
I170
I545
I527
I180
tp405
a(I498
I169
I177
I264
I173
I529
I460
I175
tp406
a(I508
I166
I157
I231
I181
I533
I419
I161
tp407
a(I443
I146
I153
I218
I154
I411
I481
I169
tp408
a(I419
I122
I156
I208
I168
I460
I487
I178
tp409
a(I458
I108
I157
I213
I164
I491
I439
I168
tp410
a(I453
I113
I169
I209
I159
I516
I477
I172
tp411
a(I419
I130
I166
I200
I167
I570
I530
I175
tp412
a(I407
I132
I164
I200
I171
I562
I490
I159
tp413
a(I406
I121
I137
I179
I156
I519
I469
I135
tp414
a(I419
I121
I131
I183
I159
I539
I489
I137
tp415
a(I355
I110
I117
I183
I169
I597
I431
I131
tp416
a(I400
I118
I108
I183
I151
I537
I420
I124
tp417
a(I391
I112
I105
I204
I162
I558
I417
I128
tp418
a(I414
I123
I102
I219
I164
I601
I398
I129
tp419
a(I380
I127
I110
I215
I158
I583
I382
I127
tp420
a(I390
I148
I106
I212
I159
I488
I446
I126
tp421
a(I335
I129
I104
I221
I168
I492
I382
I123
tp422
a(I363
I139
I109
I267
I209
I537
I392
I126
tp423
a(I358
I158
I113
I274
I219
I483
I416
I151
tp424
a(I342
I153
I107
I272
I230
I501
I487
I159
tp425
a(I331
I151
I103
I270
I224
I543
I450
I153
tp426
a(I374
I161
I117
I262
I219
I562
I459
I157
tp427
a(I358
I162
I142
I193
I185
I556
I485
I185
tp428
a(I405
I138
I142
I156
I176
I562
I493
I173
tp429
a(I451
I154
I143
I159
I166
I539
I447
I180
tp430
a(I449
I143
I148
I194
I166
I489
I478
I187
tp431
a(I442
I143
I149
I192
I160
I460
I477
I206
tp432
a(I427
I126
I125
I202
I152
I378
I436
I194
tp433
a(I368
I134
I136
I204
I153
I385
I402
I195
tp434
a(I352
I129
I141
I200
I147
I370
I490
I189
tp435
a(I355
I127
I134
I174
I145
I378
I487
I191
tp436
a(I356
I118
I122
I189
I151
I350
I471
I176
tp437
a(I392
I128
I150
I190
I150
I360
I497
I164
tp438
a(I382
I138
I182
I224
I148
I345
I497
I156
tp439
a(I311
I130
I181
I221
I144
I311
I379
I143
tp440
a(I311
I130
I178
I215
I140
I306
I327
I129
tp441
a(I307
I129
I200
I211
I165
I331
I381
I128
tp442
a(I294
I143
I188
I230
I198
I420
I408
I135
tp443
a(I287
I124
I151
I217
I212
I471
I431
I135
tp444
a(I330
I122
I156
I212
I221
I532
I460
I136
tp445
a(I327
I124
I169
I218
I224
I526
I457
I140
tp446
a(I297
I131
I149
I219
I210
I511
I513
I143
tp447
a(I263
I120
I154
I201
I171
I495
I451
I148
tp448
a(I276
I126
I161
I178
I157
I441
I469
I163
tp449
a(I235
I128
I156
I225
I183
I451
I446
I170
tp450
a(I230
I125
I157
I240
I189
I489
I457
I181
tp451
a(I217
I121
I155
I237
I198
I540
I353
I175
tp452
a(I195
I110
I154
I242
I215
I551
I472
I180
tp453
a(I241
I107
I149
I259
I230
I613
I449
I205
tp454
a(I238
I110
I154
I226
I204
I578
I472
I202
tp455
a(I302
I115
I152
I217
I204
I611
I464
I204
tp456
a(I324
I110
I153
I218
I202
I648
I482
I197
tp457
a(I351
I118
I146
I207
I183
I592
I415
I186
tp458
a(I339
I119
I136
I179
I154
I529
I423
I156
tp459
a(I364
I139
I140
I176
I156
I520
I411
I159
tp460
a(I329
I138
I132
I201
I144
I470
I409
I144
tp461
asS'forward'
p462
(lp463
(I129
I114
I89
I57
I94
I498
I203
I80
tp464
a(I151
I124
I89
I54
I73
I432
I222
I78
tp465
a(I154
I125
I93
I58
I74
I429
I221
I77
tp466
a(I152
I135
I103
I60
I70
I394
I282
I80
tp467
a(I155
I128
I102
I60
I93
I404
I288
I80
tp468
a(I204
I147
I121
I71
I106
I447
I281
I77
tp469
a(I179
I132
I115
I68
I108
I436
I271
I80
tp470
a(I174
I123
I107
I66
I120
I477
I300
I85
tp471
a(I177
I123
I100
I67
I123
I513
I258
I83
tp472
a(I186
I143
I98
I72
I125
I619
I237
I74
tp473
a(I145
I142
I75
I62
I118
I607
I258
I72
tp474
a(I153
I144
I83
I61
I124
I623
I279
I74
tp475
a(I160
I151
I86
I58
I118
I607
I260
I73
tp476
a(I171
I147
I85
I60
I121
I575
I255
I67
tp477
a(I167
I133
I75
I53
I102
I469
I252
I70
tp478
a(I146
I106
I74
I56
I102
I505
I236
I71
tp479
a(I155
I110
I70
I60
I100
I487
I318
I74
tp480
a(I180
I126
I69
I61
I93
I463
I317
I74
tp481
a(I186
I124
I68
I57
I90
I473
I312
I72
tp482
a(I188
I122
I73
I59
I94
I473
I320
I76
tp483
a(I211
I125
I73
I61
I93
I413
I337
I82
tp484
a(I225
I139
I64
I54
I82
I380
I232
I71
tp485
a(I206
I116
I69
I53
I84
I391
I271
I74
tp486
a(I195
I116
I76
I56
I78
I385
I273
I74
tp487
a(I190
I125
I71
I57
I69
I360
I282
I70
tp488
a(I179
I125
I68
I52
I62
I336
I262
I67
tp489
a(I143
I102
I71
I52
I68
I343
I271
I72
tp490
a(I131
I101
I62
I57
I80
I390
I231
I65
tp491
a(I163
I100
I59
I53
I83
I421
I214
I71
tp492
a(I168
I110
I70
I57
I85
I402
I212
I75
tp493
a(I167
I120
I82
I67
I100
I467
I221
I73
tp494
a(I177
I121
I81
I70
I100
I458
I251
I78
tp495
a(I248
I164
I83
I67
I87
I452
I241
I78
tp496
a(I253
I173
I82
I67
I96
I491
I259
I73
tp497
a(I263
I164
I77
I61
I103
I505
I295
I74
tp498
a(I270
I161
I64
I49
I91
I482
I307
I74
tp499
a(I272
I165
I77
I46
I97
I523
I265
I63
tp500
a(I217
I135
I79
I47
I97
I484
I269
I62
tp501
a(I186
I122
I78
I45
I87
I421
I273
I69
tp502
a(I175
I123
I76
I41
I81
I410
I263
I73
tp503
a(I151
I120
I82
I42
I93
I439
I244
I72
tp504
a(I142
I114
I71
I42
I85
I387
I251
I78
tp505
a(I172
I118
I69
I46
I88
I400
I245
I77
tp506
a(I220
I150
I63
I48
I89
I427
I231
I74
tp507
a(I208
I142
I59
I50
I87
I417
I178
I62
tp508
a(I206
I137
I50
I48
I74
I400
I153
I56
tp509
a(I274
I171
I49
I49
I69
I397
I152
I49
tp510
a(I280
I178
I51
I46
I83
I420
I180
I59
tp511
a(I247
I156
I63
I50
I94
I469
I225
I72
tp512
a(I249
I156
I61
I49
I94
I473
I226
I74
tp513
a(I252
I158
I65
I53
I117
I479
I244
I78
tp514
a(I172
I124
I71
I52
I124
I477
I268
I85
tp515
a(I141
I119
I66
I51
I117
I504
I260
I82
tp516
a(I136
I111
I66
I48
I107
I460
I232
I71
tp517
a(I156
I118
I68
I46
I109
I479
I279
I81
tp518
a(I173
I126
I78
I52
I80
I425
I283
I80
tp519
a(I203
I152
I72
I52
I72
I448
I256
I72
tp520
a(I198
I156
I92
I67
I86
I426
I277
I79
tp521
a(I217
I157
I86
I70
I96
I437
I332
I105
tp522
a(I204
I150
I89
I72
I98
I425
I314
I102
tp523
a(I193
I144
I83
I71
I101
I453
I324
I116
tp524
a(I158
I111
I84
I72
I100
I441
I330
I118
tp525
a(I149
I81
I61
I59
I86
I408
I299
I111
tp526
a(I185
I112
I72
I60
I81
I391
I239
I93
tp527
a(I202
I124
I73
I61
I77
I387
I279
I103
tp528
a(I216
I134
I74
I56
I76
I340
I375
I126
tp529
a(I220
I140
I73
I59
I78
I342
I392
I130
tp530
a(I218
I150
I79
I56
I70
I326
I395
I132
tp531
a(I176
I127
I72
I50
I67
I327
I388
I125
tp532
a(I158
I117
I72
I53
I80
I400
I349
I113
tp533
a(I173
I121
I68
I54
I77
I415
I212
I68
tp534
a(I186
I125
I75
I59
I76
I440
I192
I56
tp535
a(I190
I122
I79
I62
I88
I446
I196
I55
tp536
a(I211
I132
I79
I60
I88
I425
I209
I59
tp537
a(I243
I144
I76
I59
I84
I378
I279
I74
tp538
a(I222
I139
I87
I65
I87
I374
I317
I83
tp539
a(I221
I143
I80
I57
I104
I367
I341
I87
tp540
a(I225
I138
I70
I55
I101
I436
I377
I97
tp541
a(I214
I146
I76
I62
I109
I454
I390
I100
tp542
a(I222
I155
I76
I59
I101
I443
I334
I87
tp543
a(I227
I156
I62
I53
I97
I449
I305
I76
tp544
a(I257
I157
I71
I54
I87
I444
I290
I73
tp545
a(I251
I159
I72
I56
I87
I375
I251
I61
tp546
a(I233
I144
I62
I46
I72
I351
I222
I54
tp547
a(I213
I140
I70
I48
I81
I366
I243
I60
tp548
a(I219
I164
I68
I47
I84
I375
I255
I63
tp549
a(I194
I164
I63
I47
I75
I355
I227
I65
tp550
a(I257
I175
I69
I46
I80
I385
I221
I74
tp551
a(I266
I180
I71
I48
I83
I397
I218
I78
tp552
a(I248
I165
I62
I45
I80
I416
I214
I85
tp553
a(I249
I147
I76
I56
I84
I435
I200
I96
tp554
a(I243
I139
I72
I58
I84
I471
I250
I98
tp555
a(I172
I123
I68
I57
I86
I479
I261
I96
tp556
a(I173
I111
I66
I56
I87
I461
I265
I94
tp557
a(I189
I124
I66
I57
I82
I442
I262
I95
tp558
a(I169
I115
I52
I45
I80
I404
I257
I83
tp559
a(I185
I129
I62
I45
I87
I356
I217
I78
tp560
a(I214
I166
I60
I49
I85
I327
I206
I72
tp561
a(I223
I167
I72
I55
I92
I371
I259
I82
tp562
a(I210
I160
I86
I59
I93
I365
I267
I85
tp563
a(I213
I178
I85
I61
I100
I386
I323
I93
tp564
a(I189
I164
I78
I55
I95
I406
I333
I92
tp565
a(I200
I135
I83
I55
I93
I447
I326
I90
tp566
a(I207
I169
I78
I53
I80
I415
I274
I80
tp567
a(I214
I184
I65
I48
I80
I391
I259
I75
tp568
a(I214
I161
I69
I46
I71
I389
I225
I77
tp569
a(I238
I177
I73
I50
I81
I407
I230
I83
tp570
a(I202
I166
I65
I48
I76
I347
I241
I86
tp571
a(I212
I147
I63
I44
I82
I363
I254
I85
tp572
a(I209
I134
I68
I48
I88
I372
I257
I79
tp573
a(I218
I147
I65
I47
I87
I370
I223
I71
tp574
a(I222
I144
I63
I51
I74
I331
I201
I68
tp575
a(I233
I156
I70
I51
I81
I400
I220
I71
tp576
a(I201
I147
I69
I51
I86
I412
I232
I78
tp577
a(I199
I139
I67
I48
I85
I430
I228
I73
tp578
a(I204
I125
I72
I46
I87
I417
I297
I75
tp579
a(I189
I123
I77
I53
I95
I461
I316
I77
tp580
a(I183
I112
I71
I51
I87
I446
I304
I74
tp581
a(I194
I129
I73
I51
I89
I457
I290
I68
tp582
a(I193
I149
I73
I56
I99
I473
I296
I68
tp583
a(I197
I151
I70
I58
I101
I488
I229
I63
tp584
a(I182
I146
I61
I50
I96
I479
I211
I61
tp585
a(I190
I160
I72
I65
I107
I496
I263
I72
tp586
a(I175
I142
I69
I68
I99
I459
I268
I76
tp587
a(I172
I125
I74
I65
I93
I471
I256
I75
tp588
a(I179
I150
I77
I73
I95
I498
I266
I81
tp589
a(I171
I148
I79
I70
I94
I458
I283
I82
tp590
a(I149
I126
I69
I59
I86
I433
I236
I72
tp591
a(I160
I149
I85
I63
I91
I426
I224
I72
tp592
a(I181
I148
I81
I61
I89
I485
I224
I79
tp593
a(I169
I115
I74
I51
I87
I462
I216
I72
tp594
a(I179
I114
I76
I49
I91
I472
I169
I69
tp595
a(I222
I149
I83
I51
I84
I456
I148
I73
tp596
a(I219
I128
I68
I45
I90
I513
I149
I67
tp597
a(I217
I131
I61
I44
I92
I450
I157
I60
tp598
a(I240
I153
I69
I47
I93
I496
I162
I66
tp599
a(I253
I181
I66
I51
I88
I504
I182
I69
tp600
a(I225
I169
I61
I49
I92
I497
I290
I85
tp601
a(I219
I172
I59
I46
I84
I451
I343
I90
tp602
a(I228
I176
I61
I46
I82
I486
I348
I92
tp603
a(I202
I173
I55
I46
I74
I432
I341
I90
tp604
a(I199
I154
I60
I42
I77
I423
I331
I86
tp605
a(I235
I156
I60
I41
I79
I424
I322
I76
tp606
a(I232
I155
I64
I39
I87
I425
I275
I76
tp607
a(I218
I149
I68
I44
I89
I402
I267
I74
tp608
a(I226
I150
I73
I44
I91
I453
I381
I76
tp609
a(I205
I135
I71
I46
I91
I482
I395
I79
tp610
a(I157
I114
I68
I49
I84
I464
I334
I70
tp611
a(I183
I124
I62
I53
I77
I461
I334
I70
tp612
a(I188
I132
I61
I53
I65
I414
I337
I76
tp613
a(I164
I122
I54
I51
I68
I355
I220
I74
tp614
a(I176
I122
I51
I50
I67
I308
I219
I72
tp615
asS'backward'
p616
(lp617
(I304
I134
I94
I93
I459
I283
I133
I121
tp618
a(I296
I123
I89
I98
I408
I323
I140
I104
tp619
a(I217
I124
I73
I84
I374
I315
I129
I92
tp620
a(I237
I104
I80
I89
I339
I262
I133
I106
tp621
a(I224
I108
I72
I75
I355
I264
I137
I105
tp622
a(I246
I109
I88
I74
I382
I257
I135
I88
tp623
a(I229
I118
I105
I74
I358
I233
I133
I87
tp624
a(I223
I110
I107
I83
I376
I238
I130
I87
tp625
a(I205
I111
I103
I84
I373
I254
I116
I60
tp626
a(I247
I115
I112
I91
I492
I288
I115
I61
tp627
a(I209
I116
I110
I92
I521
I300
I113
I74
tp628
a(I249
I109
I123
I98
I622
I332
I106
I85
tp629
a(I254
I106
I122
I91
I617
I334
I127
I93
tp630
a(I251
I110
I126
I89
I639
I352
I128
I101
tp631
a(I218
I121
I120
I84
I567
I334
I120
I101
tp632
a(I224
I118
I125
I86
I616
I323
I114
I89
tp633
a(I186
I121
I106
I85
I637
I314
I117
I85
tp634
a(I202
I153
I116
I86
I658
I328
I92
I84
tp635
a(I230
I150
I115
I83
I685
I300
I104
I88
tp636
a(I231
I143
I120
I81
I655
I289
I109
I94
tp637
a(I225
I142
I126
I75
I642
I280
I109
I96
tp638
a(I258
I147
I122
I75
I549
I241
I109
I93
tp639
a(I287
I116
I117
I76
I536
I219
I113
I96
tp640
a(I282
I116
I113
I74
I487
I207
I114
I90
tp641
a(I271
I110
I107
I72
I490
I239
I130
I93
tp642
a(I281
I113
I77
I76
I383
I254
I138
I96
tp643
a(I255
I109
I79
I78
I387
I269
I136
I99
tp644
a(I237
I126
I69
I83
I334
I272
I133
I94
tp645
a(I237
I140
I72
I88
I389
I317
I139
I92
tp646
a(I245
I132
I87
I91
I474
I372
I136
I91
tp647
a(I277
I137
I97
I96
I475
I404
I134
I87
tp648
a(I272
I146
I98
I87
I455
I386
I135
I93
tp649
a(I251
I134
I107
I85
I492
I394
I137
I91
tp650
a(I232
I134
I108
I87
I516
I390
I152
I88
tp651
a(I236
I140
I94
I83
I416
I322
I144
I85
tp652
a(I194
I137
I94
I79
I424
I294
I156
I95
tp653
a(I192
I129
I96
I79
I407
I292
I148
I83
tp654
a(I182
I139
I89
I83
I435
I296
I159
I87
tp655
a(I181
I146
I94
I90
I437
I259
I139
I94
tp656
a(I259
I146
I101
I91
I538
I294
I138
I107
tp657
a(I278
I155
I100
I89
I606
I310
I126
I98
tp658
a(I274
I152
I104
I90
I641
I313
I126
I100
tp659
a(I274
I176
I109
I79
I618
I287
I113
I98
tp660
a(I303
I161
I107
I68
I560
I298
I113
I92
tp661
a(I249
I161
I103
I68
I520
I252
I122
I90
tp662
a(I244
I147
I96
I65
I480
I220
I130
I98
tp663
a(I253
I142
I91
I74
I445
I210
I131
I98
tp664
a(I278
I108
I90
I81
I452
I212
I129
I111
tp665
a(I258
I112
I86
I79
I481
I210
I127
I114
tp666
a(I254
I109
I88
I77
I462
I238
I120
I103
tp667
a(I273
I141
I91
I78
I426
I209
I101
I97
tp668
a(I276
I144
I86
I71
I442
I289
I105
I93
tp669
a(I245
I132
I77
I62
I423
I304
I107
I73
tp670
a(I241
I135
I85
I84
I399
I288
I97
I74
tp671
a(I231
I132
I79
I90
I401
I284
I132
I86
tp672
a(I200
I104
I74
I89
I398
I305
I134
I83
tp673
a(I207
I103
I73
I86
I393
I275
I138
I92
tp674
a(I223
I113
I85
I93
I433
I339
I137
I99
tp675
a(I211
I111
I84
I83
I528
I364
I148
I97
tp676
a(I214
I122
I100
I99
I536
I354
I125
I98
tp677
a(I198
I112
I100
I102
I542
I351
I124
I100
tp678
a(I262
I118
I103
I111
I638
I386
I130
I99
tp679
a(I268
I114
I97
I111
I622
I351
I133
I98
tp680
a(I279
I114
I93
I109
I564
I328
I121
I98
tp681
a(I278
I105
I84
I115
I607
I357
I155
I90
tp682
a(I276
I108
I91
I121
I595
I352
I151
I89
tp683
a(I220
I97
I90
I112
I484
I280
I144
I85
tp684
a(I199
I86
I89
I114
I512
I259
I137
I93
tp685
a(I210
I115
I90
I119
I478
I274
I146
I107
tp686
a(I199
I122
I91
I103
I366
I262
I100
I101
tp687
a(I200
I126
I84
I92
I351
I258
I103
I100
tp688
a(I190
I142
I89
I97
I388
I255
I94
I100
tp689
a(I191
I159
I99
I96
I367
I310
I105
I92
tp690
a(I182
I137
I96
I94
I397
I348
I117
I73
tp691
a(I214
I149
I98
I85
I465
I327
I114
I75
tp692
a(I289
I151
I111
I90
I550
I353
I121
I82
tp693
a(I299
I154
I110
I90
I526
I355
I132
I88
tp694
a(I308
I153
I99
I86
I496
I321
I140
I85
tp695
a(I298
I160
I108
I88
I484
I291
I126
I85
tp696
a(I285
I164
I99
I94
I435
I294
I126
I83
tp697
a(I295
I161
I87
I94
I388
I306
I124
I86
tp698
a(I278
I148
I81
I97
I454
I325
I117
I89
tp699
a(I313
I138
I87
I93
I465
I300
I109
I104
tp700
a(I319
I141
I82
I85
I460
I278
I113
I103
tp701
a(I344
I116
I85
I85
I482
I289
I117
I118
tp702
a(I277
I129
I85
I82
I448
I316
I116
I121
tp703
a(I314
I135
I83
I83
I431
I404
I155
I124
tp704
a(I282
I141
I76
I85
I438
I410
I149
I113
tp705
a(I285
I134
I66
I86
I460
I410
I149
I121
tp706
a(I255
I129
I70
I84
I460
I413
I151
I116
tp707
a(I289
I127
I79
I93
I443
I377
I154
I116
tp708
a(I250
I133
I79
I86
I454
I269
I111
I107
tp709
a(I241
I128
I86
I85
I440
I255
I109
I109
tp710
a(I284
I129
I93
I95
I401
I312
I115
I116
tp711
a(I312
I133
I93
I100
I357
I308
I111
I109
tp712
a(I291
I116
I83
I91
I385
I294
I112
I117
tp713
a(I303
I114
I84
I95
I340
I296
I116
I118
tp714
a(I299
I106
I79
I98
I317
I308
I121
I114
tp715
a(I268
I101
I74
I89
I378
I256
I109
I101
tp716
a(I277
I113
I72
I78
I383
I247
I105
I117
tp717
a(I328
I114
I83
I85
I430
I323
I99
I116
tp718
a(I312
I105
I86
I80
I401
I327
I111
I120
tp719
a(I337
I104
I95
I84
I433
I316
I113
I123
tp720
a(I371
I113
I108
I99
I413
I333
I113
I124
tp721
a(I369
I102
I107
I99
I414
I337
I122
I126
tp722
a(I341
I116
I102
I92
I342
I260
I141
I122
tp723
a(I400
I114
I108
I97
I354
I264
I133
I124
tp724
a(I391
I116
I104
I90
I384
I271
I131
I120
tp725
a(I341
I120
I101
I79
I431
I258
I132
I118
tp726
a(I392
I117
I101
I94
I449
I261
I122
I111
tp727
a(I409
I120
I97
I98
I527
I259
I113
I129
tp728
a(I368
I113
I95
I94
I542
I254
I120
I128
tp729
a(I378
I115
I90
I92
I506
I264
I117
I128
tp730
a(I379
I107
I78
I92
I529
I260
I115
I126
tp731
a(I306
I113
I87
I81
I542
I270
I118
I117
tp732
a(I273
I98
I96
I79
I486
I289
I119
I93
tp733
a(I274
I113
I100
I80
I514
I283
I113
I100
tp734
a(I295
I121
I107
I85
I542
I281
I123
I98
tp735
a(I295
I140
I105
I81
I485
I275
I130
I97
tp736
a(I278
I136
I98
I77
I443
I267
I129
I99
tp737
a(I259
I132
I90
I73
I445
I273
I151
I102
tp738
a(I245
I127
I84
I71
I375
I293
I148
I88
tp739
a(I253
I131
I86
I75
I407
I316
I149
I109
tp740
a(I262
I106
I84
I67
I451
I314
I139
I111
tp741
a(I261
I107
I78
I67
I481
I300
I138
I110
tp742
a(I283
I125
I81
I70
I495
I273
I107
I107
tp743
a(I308
I129
I78
I71
I514
I270
I113
I108
tp744
a(I415
I153
I82
I83
I600
I246
I113
I101
tp745
a(I431
I154
I92
I94
I572
I283
I144
I113
tp746
a(I450
I159
I95
I94
I549
I292
I146
I120
tp747
a(I447
I150
I94
I98
I515
I292
I142
I114
tp748
a(I457
I151
I101
I107
I527
I263
I138
I123
tp749
a(I338
I118
I93
I95
I409
I256
I138
I131
tp750
a(I396
I125
I91
I102
I371
I232
I133
I146
tp751
a(I420
I119
I91
I102
I400
I269
I146
I142
tp752
a(I504
I129
I88
I104
I419
I260
I142
I156
tp753
a(I489
I114
I76
I93
I446
I280
I145
I147
tp754
a(I483
I110
I89
I108
I461
I288
I154
I134
tp755
a(I462
I103
I91
I94
I485
I261
I136
I108
tp756
a(I447
I108
I93
I93
I519
I236
I130
I112
tp757
a(I355
I101
I108
I95
I562
I245
I144
I100
tp758
a(I332
I100
I106
I104
I525
I243
I143
I97
tp759
a(I347
I117
I111
I91
I481
I220
I125
I100
tp760
a(I334
I133
I105
I99
I461
I227
I120
I118
tp761
a(I314
I129
I104
I100
I385
I204
I106
I108
tp762
a(I322
I135
I95
I95
I329
I193
I93
I113
tp763
a(I403
I145
I101
I95
I349
I177
I122
I154
tp764
a(I423
I146
I92
I108
I394
I194
I124
I157
tp765
a(I429
I143
I94
I102
I396
I232
I130
I156
tp766
a(I421
I144
I97
I105
I405
I263
I137
I158
tp767
a(I399
I131
I90
I105
I452
I290
I137
I149
tp768
a(I323
I129
I100
I110
I487
I277
I107
I111
tp769
a(I306
I121
I95
I93
I493
I261
I108
I96
tp770
a(I335
I105
I105
I95
I490
I305
I129
I99
tp771
a(I351
I109
I101
I97
I523
I283
I123
I97
tp772
a(I355
I117
I109
I109
I493
I259
I124
I95
tp773
a(I375
I115
I97
I113
I453
I264
I123
I101
tp774
a(I348
I119
I92
I112
I379
I290
I145
I106
tp775
a(I430
I130
I84
I113
I458
I244
I127
I138
tp776
a(I412
I126
I84
I119
I451
I263
I132
I139
tp777
a(I415
I142
I87
I104
I470
I273
I123
I138
tp778
a(I395
I146
I89
I91
I555
I334
I130
I132
tp779
a(I451
I143
I92
I98
I560
I327
I110
I145
tp780
a(I307
I145
I86
I91
I556
I335
I105
I114
tp781
a(I322
I146
I83
I90
I629
I402
I109
I115
tp782
a(I335
I123
I78
I103
I647
I406
I113
I120
tp783
a(I341
I116
I72
I98
I569
I357
I106
I124
tp784
a(I265
I113
I73
I89
I594
I360
I101
I103
tp785
a(I300
I97
I78
I91
I536
I353
I104
I87
tp786
a(I298
I94
I100
I103
I464
I255
I100
I85
tp787
a(I302
I105
I101
I105
I391
I254
I99
I92
tp788
a(I302
I95
I105
I113
I403
I330
I127
I91
tp789
a(I304
I99
I106
I128
I385
I335
I138
I110
tp790
a(I268
I100
I109
I135
I407
I308
I138
I121
tp791
a(I240
I100
I102
I121
I350
I304
I140
I119
tp792
a(I294
I95
I106
I113
I414
I310
I145
I118
tp793
a(I307
I101
I104
I107
I413
I228
I147
I125
tp794
a(I293
I93
I101
I88
I384
I197
I133
I112
tp795
a(I292
I135
I97
I87
I489
I265
I133
I93
tp796
a(I333
I158
I88
I94
I544
I265
I131
I105
tp797
a(I306
I164
I79
I97
I511
I255
I128
I103
tp798
a(I306
I170
I86
I101
I521
I262
I98
I98
tp799
a(I305
I178
I87
I107
I532
I265
I102
I95
tp800
a(I340
I150
I84
I102
I460
I199
I105
I99
tp801
a(I309
I121
I80
I91
I508
I202
I121
I91
tp802
a(I290
I112
I77
I84
I620
I214
I136
I103
tp803
a(I300
I117
I79
I102
I601
I217
I145
I107
tp804
a(I316
I133
I78
I96
I595
I203
I148
I108
tp805
a(I356
I132
I83
I91
I637
I243
I158
I122
tp806
a(I425
I134
I96
I106
I636
I291
I152
I145
tp807
asS'left'
p808
(lp809
(I743
I175
I59
I129
I148
I409
I242
I125
tp810
a(I628
I168
I57
I136
I129
I376
I213
I123
tp811
a(I603
I165
I57
I154
I125
I298
I166
I110
tp812
a(I567
I172
I51
I139
I132
I294
I157
I109
tp813
a(I540
I168
I50
I135
I136
I235
I143
I104
tp814
a(I401
I133
I44
I131
I147
I258
I143
I86
tp815
a(I360
I121
I50
I126
I150
I252
I136
I73
tp816
a(I389
I117
I55
I115
I137
I197
I124
I77
tp817
a(I389
I85
I60
I97
I134
I230
I167
I88
tp818
a(I376
I79
I62
I135
I129
I224
I163
I88
tp819
a(I387
I80
I61
I146
I128
I204
I160
I87
tp820
a(I388
I80
I56
I156
I124
I203
I160
I87
tp821
a(I374
I117
I51
I159
I124
I198
I163
I89
tp822
a(I368
I116
I47
I159
I140
I185
I115
I73
tp823
a(I363
I118
I41
I127
I143
I194
I115
I67
tp824
a(I350
I118
I41
I116
I131
I189
I119
I69
tp825
a(I392
I120
I40
I147
I139
I201
I137
I73
tp826
a(I405
I86
I40
I143
I140
I201
I131
I75
tp827
a(I375
I80
I42
I143
I113
I182
I119
I74
tp828
a(I378
I71
I41
I140
I104
I164
I120
I72
tp829
a(I467
I94
I38
I136
I113
I172
I139
I91
tp830
a(I499
I103
I47
I111
I131
I211
I157
I95
tp831
a(I556
I111
I48
I118
I162
I228
I162
I103
tp832
a(I586
I117
I46
I119
I164
I226
I172
I111
tp833
a(I601
I127
I52
I128
I184
I277
I203
I119
tp834
a(I525
I113
I58
I167
I192
I275
I187
I104
tp835
a(I467
I104
I54
I159
I176
I244
I182
I101
tp836
a(I407
I92
I53
I151
I155
I266
I181
I89
tp837
a(I355
I83
I55
I149
I157
I287
I202
I81
tp838
a(I371
I87
I53
I143
I150
I339
I220
I75
tp839
a(I382
I88
I47
I100
I182
I403
I233
I78
tp840
a(I363
I82
I46
I87
I193
I413
I229
I71
tp841
a(I332
I80
I45
I91
I206
I413
I235
I76
tp842
a(I340
I82
I43
I118
I240
I409
I223
I77
tp843
a(I289
I69
I40
I119
I243
I352
I193
I83
tp844
a(I269
I67
I40
I114
I223
I295
I210
I81
tp845
a(I265
I68
I41
I140
I220
I289
I201
I80
tp846
a(I212
I63
I43
I140
I201
I265
I193
I70
tp847
a(I221
I60
I44
I144
I178
I251
I211
I70
tp848
a(I207
I49
I42
I151
I173
I232
I196
I56
tp849
a(I227
I51
I44
I156
I162
I209
I173
I59
tp850
a(I256
I55
I42
I136
I150
I192
I170
I61
tp851
a(I281
I61
I40
I133
I164
I184
I171
I64
tp852
a(I255
I59
I40
I107
I151
I180
I134
I59
tp853
a(I254
I63
I39
I102
I160
I168
I128
I60
tp854
a(I249
I61
I35
I95
I153
I190
I150
I56
tp855
a(I222
I57
I32
I89
I154
I187
I150
I56
tp856
a(I210
I53
I36
I84
I139
I198
I149
I54
tp857
a(I217
I58
I43
I93
I157
I315
I176
I53
tp858
a(I223
I53
I44
I82
I131
I322
I180
I49
tp859
a(I248
I61
I44
I97
I150
I303
I154
I57
tp860
a(I274
I67
I46
I97
I157
I312
I154
I62
tp861
a(I263
I66
I43
I95
I155
I302
I155
I62
tp862
a(I261
I63
I39
I87
I133
I187
I124
I62
tp863
a(I253
I67
I38
I91
I134
I208
I134
I65
tp864
a(I270
I72
I40
I73
I115
I204
I128
I65
tp865
a(I272
I71
I37
I72
I125
I195
I129
I62
tp866
a(I319
I78
I35
I74
I143
I195
I128
I71
tp867
a(I314
I76
I33
I77
I136
I186
I120
I70
tp868
a(I335
I79
I34
I91
I155
I214
I157
I76
tp869
a(I324
I72
I34
I94
I161
I219
I158
I71
tp870
a(I311
I69
I37
I99
I157
I229
I160
I70
tp871
a(I291
I68
I42
I103
I146
I231
I160
I61
tp872
a(I289
I68
I43
I101
I152
I238
I161
I69
tp873
a(I257
I63
I47
I90
I143
I207
I138
I62
tp874
a(I206
I51
I47
I92
I131
I207
I147
I60
tp875
a(I198
I51
I45
I88
I123
I189
I141
I58
tp876
a(I147
I36
I43
I83
I123
I187
I143
I58
tp877
a(I276
I52
I44
I80
I124
I193
I152
I65
tp878
a(I276
I50
I41
I85
I111
I183
I132
I61
tp879
a(I277
I55
I45
I84
I117
I245
I145
I58
tp880
a(I272
I57
I50
I89
I110
I259
I168
I60
tp881
a(I284
I63
I46
I94
I105
I279
I175
I63
tp882
a(I199
I51
I43
I97
I97
I260
I168
I52
tp883
a(I213
I54
I44
I92
I120
I254
I165
I52
tp884
a(I281
I60
I40
I82
I112
I193
I147
I58
tp885
a(I302
I64
I35
I86
I116
I239
I139
I65
tp886
a(I298
I59
I35
I92
I124
I221
I143
I60
tp887
a(I278
I60
I37
I99
I125
I226
I142
I60
tp888
a(I293
I64
I35
I97
I101
I225
I138
I67
tp889
a(I234
I56
I39
I97
I106
I255
I132
I64
tp890
a(I201
I48
I43
I91
I117
I223
I236
I59
tp891
a(I191
I48
I42
I81
I111
I220
I237
I63
tp892
a(I222
I54
I43
I71
I105
I213
I241
I64
tp893
a(I187
I47
I46
I79
I106
I241
I252
I61
tp894
a(I208
I51
I43
I82
I102
I202
I256
I64
tp895
a(I223
I52
I38
I77
I78
I221
I158
I60
tp896
a(I281
I65
I38
I80
I72
I218
I139
I60
tp897
a(I261
I61
I39
I81
I76
I225
I142
I57
tp898
a(I258
I64
I36
I75
I83
I226
I145
I56
tp899
a(I257
I61
I35
I75
I82
I233
I139
I51
tp900
a(I283
I65
I39
I79
I84
I208
I168
I57
tp901
a(I228
I54
I39
I84
I89
I207
I170
I57
tp902
a(I234
I61
I38
I87
I96
I210
I189
I56
tp903
a(I236
I60
I35
I85
I94
I188
I196
I54
tp904
a(I225
I61
I37
I90
I95
I181
I197
I58
tp905
a(I209
I59
I41
I86
I104
I167
I167
I53
tp906
a(I223
I62
I48
I78
I101
I172
I167
I57
tp907
a(I228
I57
I48
I69
I98
I173
I138
I60
tp908
a(I261
I64
I50
I68
I113
I166
I115
I61
tp909
a(I253
I63
I50
I78
I115
I160
I117
I59
tp910
a(I244
I64
I47
I85
I105
I145
I117
I62
tp911
a(I224
I57
I39
I88
I101
I133
I112
I53
tp912
a(I210
I52
I42
I100
I106
I128
I129
I49
tp913
a(I181
I50
I41
I113
I90
I128
I122
I54
tp914
a(I253
I53
I37
I104
I92
I137
I115
I59
tp915
a(I242
I48
I37
I100
I93
I145
I121
I55
tp916
a(I255
I51
I40
I94
I92
I147
I122
I56
tp917
a(I255
I50
I34
I82
I87
I161
I124
I61
tp918
a(I267
I50
I38
I60
I83
I168
I141
I56
tp919
a(I199
I50
I38
I59
I82
I176
I152
I49
tp920
a(I197
I50
I35
I57
I79
I169
I145
I49
tp921
a(I213
I53
I30
I62
I86
I176
I148
I50
tp922
a(I213
I55
I31
I61
I79
I164
I128
I44
tp923
a(I200
I48
I33
I80
I83
I144
I103
I44
tp924
a(I245
I58
I34
I93
I82
I140
I110
I54
tp925
a(I243
I62
I50
I94
I88
I169
I118
I56
tp926
a(I212
I58
I53
I95
I96
I169
I123
I55
tp927
a(I242
I67
I57
I103
I102
I184
I145
I66
tp928
a(I227
I65
I54
I89
I97
I191
I149
I63
tp929
a(I183
I53
I54
I75
I101
I196
I137
I56
tp930
a(I229
I54
I44
I95
I104
I187
I127
I57
tp931
a(I235
I54
I42
I100
I98
I187
I129
I59
tp932
a(I221
I41
I36
I97
I110
I187
I117
I48
tp933
a(I216
I44
I40
I109
I112
I233
I117
I48
tp934
a(I270
I54
I40
I107
I107
I226
I114
I49
tp935
a(I280
I57
I37
I95
I110
I218
I118
I48
tp936
a(I279
I58
I40
I91
I106
I212
I111
I47
tp937
a(I261
I60
I41
I95
I85
I194
I114
I47
tp938
a(I275
I59
I37
I91
I86
I154
I113
I50
tp939
a(I251
I55
I37
I91
I87
I146
I117
I46
tp940
a(I193
I46
I36
I81
I77
I151
I115
I43
tp941
a(I213
I50
I32
I77
I76
I158
I112
I55
tp942
a(I226
I54
I35
I63
I84
I156
I106
I52
tp943
a(I210
I53
I36
I56
I100
I161
I136
I55
tp944
a(I163
I47
I36
I59
I110
I181
I135
I59
tp945
a(I188
I51
I40
I64
I109
I178
I140
I63
tp946
a(I160
I43
I40
I65
I107
I175
I151
I52
tp947
a(I140
I34
I37
I69
I102
I186
I148
I56
tp948
a(I159
I39
I36
I69
I82
I175
I125
I54
tp949
a(I190
I43
I39
I73
I71
I164
I121
I53
tp950
a(I167
I40
I37
I72
I79
I173
I137
I50
tp951
a(I173
I44
I40
I74
I80
I182
I128
I54
tp952
a(I171
I45
I40
I73
I76
I171
I134
I53
tp953
a(I167
I41
I40
I80
I78
I166
I132
I49
tp954
a(I169
I45
I37
I74
I74
I190
I141
I55
tp955
a(I165
I43
I37
I71
I64
I178
I120
I55
tp956
a(I176
I46
I34
I72
I76
I197
I129
I52
tp957
a(I232
I50
I35
I79
I79
I198
I131
I54
tp958
a(I227
I52
I33
I81
I87
I209
I135
I54
tp959
a(I202
I46
I34
I87
I108
I197
I141
I42
tp960
a(I211
I51
I34
I92
I111
I195
I143
I48
tp961
a(I203
I48
I33
I102
I105
I211
I139
I50
tp962
as.