(dp0
S'right'
p1
(lp2
(I142
I135
I112
I279
I572
I549
I367
I103
tp3
a(I151
I120
I97
I261
I538
I529
I341
I105
tp4
a(I176
I161
I88
I237
I476
I529
I347
I105
tp5
a(I181
I156
I92
I242
I490
I598
I399
I106
tp6
a(I164
I151
I89
I226
I429
I449
I368
I95
tp7
a(I173
I187
I95
I194
I434
I466
I347
I94
tp8
a(I208
I190
I107
I206
I452
I501
I372
I93
tp9
a(I180
I157
I109
I218
I517
I510
I395
I97
tp10
a(I174
I173
I108
I190
I488
I459
I317
I94
tp11
a(I191
I185
I105
I184
I518
I453
I306
I105
tp12
a(I187
I157
I95
I178
I475
I547
I358
I117
tp13
a(I149
I153
I83
I170
I468
I528
I334
I118
tp14
a(I160
I167
I94
I220
I475
I524
I287
I117
tp15
a(I164
I156
I88
I240
I514
I503
I321
I117
tp16
a(I143
I151
I90
I251
I514
I540
I335
I106
tp17
a(I137
I148
I86
I252
I511
I424
I292
I87
tp18
a(I132
I159
I92
I263
I533
I415
I297
I90
tp19
a(I118
I147
I77
I231
I463
I433
I313
I91
tp20
a(I120
I149
I72
I208
I450
I472
I353
I87
tp21
a(I141
I133
I90
I311
I623
I471
I355
I88
tp22
a(I139
I126
I98
I345
I679
I499
I375
I95
tp23
a(I150
I126
I94
I349
I714
I545
I424
I105
tp24
a(I155
I133
I94
I337
I716
I631
I435
I111
tp25
a(I166
I126
I92
I343
I705
I617
I394
I115
tp26
a(I150
I142
I77
I262
I556
I676
I442
I117
tp27
a(I149
I166
I71
I225
I534
I704
I461
I127
tp28
a(I138
I155
I76
I239
I507
I692
I424
I122
tp29
a(I134
I151
I79
I242
I494
I607
I410
I115
tp30
a(I138
I152
I80
I234
I491
I594
I402
I114
tp31
a(I141
I142
I80
I244
I533
I538
I356
I108
tp32
a(I149
I136
I83
I235
I501
I523
I337
I99
tp33
a(I149
I165
I79
I215
I473
I500
I315
I91
tp34
a(I144
I160
I76
I207
I461
I470
I300
I83
tp35
a(I130
I172
I76
I213
I485
I534
I293
I86
tp36
a(I126
I173
I81
I215
I491
I540
I300
I92
tp37
a(I122
I177
I91
I257
I575
I504
I255
I83
tp38
a(I135
I175
I91
I243
I562
I544
I268
I78
tp39
a(I139
I188
I90
I244
I565
I552
I277
I90
tp40
a(I127
I186
I91
I237
I523
I540
I369
I92
tp41
a(I128
I183
I87
I227
I479
I530
I388
I87
tp42
a(I134
I174
I76
I188
I422
I582
I454
I94
tp43
a(I124
I158
I73
I182
I410
I571
I470
I107
tp44
a(I141
I152
I74
I216
I443
I591
I478
I105
tp45
a(I142
I133
I77
I229
I496
I594
I421
I106
tp46
a(I141
I129
I72
I231
I512
I565
I380
I103
tp47
a(I140
I147
I76
I232
I480
I529
I324
I106
tp48
a(I139
I144
I77
I242
I499
I513
I339
I102
tp49
a(I130
I137
I79
I216
I483
I506
I343
I101
tp50
a(I140
I219
I79
I208
I429
I459
I345
I101
tp51
a(I148
I228
I99
I286
I542
I573
I396
I110
tp52
a(I137
I229
I105
I297
I616
I536
I372
I108
tp53
a(I182
I238
I110
I299
I606
I536
I336
I109
tp54
a(I196
I245
I111
I306
I594
I521
I369
I113
tp55
a(I199
I197
I111
I305
I609
I528
I374
I104
tp56
a(I225
I205
I95
I237
I571
I412
I373
I102
tp57
a(I230
I199
I88
I210
I463
I450
I365
I97
tp58
a(I196
I185
I84
I222
I504
I528
I365
I106
tp59
a(I179
I177
I80
I209
I511
I512
I307
I94
tp60
a(I189
I168
I81
I219
I546
I528
I313
I101
tp61
a(I150
I156
I90
I240
I535
I578
I264
I102
tp62
a(I166
I155
I92
I247
I564
I578
I292
I105
tp63
a(I162
I183
I93
I226
I554
I537
I318
I92
tp64
a(I167
I182
I91
I229
I572
I533
I325
I98
tp65
a(I173
I172
I89
I230
I567
I583
I293
I107
tp66
a(I185
I192
I78
I196
I498
I529
I285
I110
tp67
a(I175
I194
I66
I217
I524
I494
I264
I111
tp68
a(I195
I177
I81
I262
I580
I481
I221
I111
tp69
a(I194
I184
I87
I279
I603
I498
I229
I115
tp70
a(I169
I195
I89
I285
I608
I395
I271
I102
tp71
a(I161
I174
I92
I292
I630
I390
I287
I98
tp72
a(I158
I156
I95
I272
I638
I408
I293
I102
tp73
a(I133
I145
I87
I259
I640
I399
I300
I99
tp74
a(I133
I173
I82
I241
I625
I448
I323
I102
tp75
a(I132
I158
I76
I215
I591
I468
I287
I101
tp76
a(I124
I149
I71
I189
I539
I459
I270
I111
tp77
a(I106
I166
I72
I176
I461
I443
I257
I100
tp78
a(I111
I177
I62
I138
I351
I441
I328
I108
tp79
a(I109
I136
I72
I133
I342
I496
I320
I97
tp80
a(I111
I161
I94
I181
I380
I519
I315
I95
tp81
a(I117
I193
I112
I213
I415
I540
I311
I85
tp82
a(I151
I180
I110
I218
I429
I546
I325
I106
tp83
a(I158
I177
I117
I225
I491
I571
I262
I108
tp84
a(I158
I219
I117
I241
I517
I513
I268
I119
tp85
a(I170
I204
I113
I260
I562
I480
I303
I129
tp86
a(I187
I178
I102
I265
I600
I514
I317
I130
tp87
a(I170
I179
I99
I260
I587
I522
I310
I117
tp88
a(I169
I190
I93
I252
I546
I458
I301
I110
tp89
a(I168
I151
I89
I237
I536
I500
I275
I110
tp90
a(I155
I157
I83
I193
I476
I523
I236
I100
tp91
a(I162
I158
I77
I181
I398
I516
I244
I106
tp92
a(I159
I182
I83
I198
I440
I509
I230
I104
tp93
a(I145
I163
I79
I195
I431
I529
I230
I99
tp94
a(I139
I156
I77
I207
I433
I486
I233
I85
tp95
a(I143
I152
I72
I219
I526
I545
I262
I97
tp96
a(I111
I157
I72
I201
I531
I508
I253
I88
tp97
a(I103
I128
I67
I206
I514
I486
I304
I86
tp98
a(I105
I127
I70
I204
I527
I519
I305
I84
tp99
a(I115
I160
I70
I214
I596
I488
I325
I94
tp100
a(I119
I171
I65
I196
I523
I394
I308
I91
tp101
a(I110
I180
I67
I201
I555
I405
I317
I84
tp102
a(I124
I198
I69
I200
I599
I423
I272
I88
tp103
a(I128
I203
I72
I201
I587
I384
I292
I108
tp104
a(I118
I176
I69
I172
I472
I445
I278
I116
tp105
a(I114
I163
I82
I173
I429
I442
I313
I111
tp106
a(I117
I182
I81
I161
I396
I448
I320
I118
tp107
a(I107
I164
I85
I171
I376
I543
I344
I123
tp108
a(I127
I161
I88
I181
I420
I528
I330
I111
tp109
a(I127
I157
I89
I192
I438
I492
I339
I104
tp110
a(I126
I157
I87
I208
I466
I531
I314
I107
tp111
a(I127
I148
I87
I212
I469
I524
I298
I103
tp112
a(I190
I159
I82
I190
I415
I461
I282
I101
tp113
a(I186
I171
I82
I188
I359
I591
I365
I113
tp114
a(I184
I185
I80
I186
I407
I620
I355
I109
tp115
a(I189
I202
I71
I159
I395
I606
I358
I108
tp116
a(I213
I177
I83
I185
I446
I607
I355
I119
tp117
a(I173
I179
I92
I204
I466
I627
I364
I121
tp118
a(I164
I183
I91
I202
I479
I538
I266
I104
tp119
a(I171
I172
I91
I214
I432
I509
I249
I97
tp120
a(I174
I157
I93
I237
I505
I543
I242
I102
tp121
a(I137
I159
I82
I228
I479
I521
I219
I86
tp122
a(I142
I147
I71
I215
I479
I500
I261
I84
tp123
a(I154
I120
I65
I207
I482
I482
I277
I100
tp124
a(I149
I141
I69
I219
I504
I441
I278
I101
tp125
a(I140
I144
I68
I237
I490
I403
I301
I101
tp126
a(I138
I166
I76
I224
I463
I444
I337
I102
tp127
a(I120
I168
I81
I222
I447
I459
I334
I97
tp128
a(I108
I195
I85
I243
I488
I455
I328
I80
tp129
a(I110
I197
I82
I215
I457
I468
I333
I82
tp130
a(I116
I194
I79
I179
I438
I464
I324
I76
tp131
a(I128
I188
I78
I186
I444
I436
I372
I82
tp132
a(I113
I197
I71
I175
I440
I398
I331
I79
tp133
a(I123
I175
I71
I149
I402
I380
I337
I80
tp134
a(I117
I157
I72
I161
I414
I400
I321
I75
tp135
a(I107
I159
I81
I164
I409
I378
I313
I77
tp136
a(I113
I145
I70
I174
I439
I449
I233
I79
tp137
a(I202
I155
I75
I178
I439
I435
I241
I83
tp138
a(I200
I160
I80
I172
I409
I437
I230
I82
tp139
a(I206
I156
I91
I197
I479
I477
I301
I93
tp140
a(I213
I150
I85
I183
I423
I512
I295
I87
tp141
a(I214
I157
I99
I182
I402
I464
I302
I82
tp142
a(I176
I166
I129
I318
I627
I535
I315
I94
tp143
a(I169
I159
I125
I323
I647
I574
I326
I100
tp144
a(I167
I171
I116
I302
I593
I568
I294
I98
tp145
a(I164
I171
I118
I313
I630
I539
I280
I99
tp146
a(I156
I172
I109
I300
I616
I559
I280
I98
tp147
a(I112
I127
I78
I189
I497
I510
I279
I83
tp148
a(I112
I144
I101
I311
I642
I479
I297
I79
tp149
a(I106
I134
I106
I314
I637
I440
I286
I75
tp150
a(I105
I149
I101
I309
I623
I512
I356
I80
tp151
a(I128
I154
I102
I316
I625
I499
I354
I79
tp152
a(I128
I161
I98
I304
I559
I510
I348
I79
tp153
a(I127
I147
I78
I186
I385
I506
I328
I77
tp154
a(I128
I156
I73
I185
I399
I548
I314
I78
tp155
asS'forward-left'
p156
(lp157
(I94
I137
I64
I95
I64
I375
I273
I59
tp158
a(I113
I107
I63
I97
I66
I354
I275
I66
tp159
a(I113
I129
I70
I87
I70
I427
I296
I73
tp160
a(I116
I162
I72
I86
I70
I454
I350
I74
tp161
a(I118
I158
I72
I82
I72
I456
I330
I74
tp162
a(I99
I195
I77
I87
I75
I480
I357
I75
tp163
a(I84
I203
I81
I86
I81
I496
I402
I73
tp164
a(I91
I190
I75
I74
I72
I487
I370
I66
tp165
a(I88
I180
I71
I72
I80
I562
I321
I70
tp166
a(I86
I196
I73
I74
I79
I546
I335
I65
tp167
a(I93
I154
I66
I77
I78
I553
I310
I66
tp168
a(I86
I142
I65
I84
I73
I575
I249
I66
tp169
a(I81
I160
I64
I81
I71
I528
I245
I71
tp170
a(I90
I157
I73
I85
I64
I525
I262
I81
tp171
a(I89
I130
I67
I84
I64
I557
I259
I81
tp172
a(I85
I151
I62
I78
I66
I514
I254
I79
tp173
a(I96
I155
I63
I71
I66
I473
I240
I76
tp174
a(I95
I138
I65
I69
I69
I560
I265
I76
tp175
a(I89
I136
I54
I64
I66
I497
I256
I64
tp176
a(I89
I141
I57
I63
I67
I466
I255
I63
tp177
a(I85
I128
I56
I61
I67
I470
I252
I65
tp178
a(I70
I130
I58
I65
I64
I505
I262
I70
tp179
a(I78
I154
I56
I66
I65
I484
I245
I71
tp180
a(I80
I148
I60
I74
I63
I431
I219
I67
tp181
a(I87
I144
I59
I72
I56
I417
I207
I65
tp182
a(I84
I140
I60
I79
I62
I445
I198
I61
tp183
a(I81
I141
I55
I73
I70
I491
I234
I60
tp184
a(I67
I129
I56
I77
I77
I420
I271
I50
tp185
a(I57
I120
I50
I70
I76
I430
I277
I51
tp186
a(I54
I147
I55
I83
I83
I532
I274
I56
tp187
a(I55
I155
I55
I75
I78
I527
I272
I57
tp188
a(I58
I148
I56
I79
I72
I443
I233
I58
tp189
a(I58
I149
I52
I73
I66
I525
I172
I58
tp190
a(I62
I151
I57
I79
I66
I532
I167
I61
tp191
a(I65
I136
I53
I67
I73
I490
I177
I58
tp192
a(I87
I119
I55
I67
I72
I493
I195
I57
tp193
a(I91
I157
I60
I71
I72
I497
I199
I53
tp194
a(I93
I150
I59
I78
I72
I431
I197
I52
tp195
a(I98
I170
I66
I86
I79
I504
I200
I63
tp196
a(I96
I168
I66
I88
I66
I442
I203
I61
tp197
a(I91
I169
I68
I87
I67
I461
I217
I64
tp198
a(I94
I164
I62
I81
I68
I463
I225
I65
tp199
a(I91
I163
I67
I74
I64
I447
I215
I66
tp200
a(I98
I161
I62
I59
I60
I359
I226
I54
tp201
a(I91
I175
I66
I60
I58
I434
I254
I62
tp202
a(I81
I190
I69
I65
I64
I401
I229
I62
tp203
a(I82
I173
I67
I69
I65
I408
I232
I62
tp204
a(I101
I185
I65
I69
I63
I430
I286
I67
tp205
a(I88
I196
I58
I62
I68
I469
I274
I69
tp206
a(I87
I182
I53
I67
I72
I395
I230
I61
tp207
a(I85
I185
I61
I66
I75
I403
I260
I61
tp208
a(I79
I181
I63
I62
I80
I428
I290
I64
tp209
a(I55
I185
I65
I61
I84
I411
I237
I59
tp210
a(I56
I154
I69
I64
I85
I356
I251
I54
tp211
a(I59
I148
I72
I60
I83
I348
I263
I55
tp212
a(I61
I130
I60
I54
I74
I349
I267
I53
tp213
a(I57
I122
I63
I52
I68
I390
I226
I61
tp214
a(I59
I84
I61
I52
I60
I409
I244
I64
tp215
a(I66
I175
I65
I54
I56
I453
I236
I67
tp216
a(I72
I179
I60
I54
I60
I501
I258
I74
tp217
a(I74
I175
I59
I59
I66
I533
I238
I83
tp218
a(I74
I189
I59
I64
I72
I528
I294
I79
tp219
a(I73
I207
I66
I81
I74
I526
I282
I75
tp220
a(I79
I145
I67
I85
I72
I489
I309
I74
tp221
a(I73
I140
I68
I86
I70
I511
I307
I73
tp222
a(I64
I140
I71
I86
I64
I463
I318
I65
tp223
a(I64
I170
I71
I86
I60
I421
I287
I59
tp224
a(I89
I150
I62
I68
I58
I385
I296
I58
tp225
a(I82
I148
I52
I72
I60
I424
I286
I63
tp226
a(I83
I147
I54
I65
I64
I380
I256
I55
tp227
a(I84
I148
I52
I60
I61
I374
I243
I50
tp228
a(I86
I97
I47
I55
I63
I388
I211
I52
tp229
a(I65
I110
I47
I54
I62
I387
I187
I51
tp230
a(I63
I114
I46
I43
I57
I383
I153
I45
tp231
a(I73
I110
I44
I50
I51
I346
I177
I49
tp232
a(I109
I122
I42
I53
I57
I397
I201
I57
tp233
a(I111
I116
I40
I54
I53
I368
I199
I55
tp234
a(I114
I130
I47
I52
I58
I434
I211
I60
tp235
a(I113
I131
I52
I52
I58
I400
I217
I57
tp236
a(I107
I138
I56
I58
I59
I400
I227
I59
tp237
a(I70
I127
I57
I60
I58
I413
I253
I59
tp238
a(I65
I141
I59
I65
I57
I404
I274
I59
tp239
a(I58
I117
I57
I74
I56
I364
I276
I58
tp240
a(I61
I107
I54
I71
I59
I359
I278
I61
tp241
a(I71
I107
I49
I66
I64
I359
I264
I55
tp242
a(I68
I114
I53
I75
I62
I344
I214
I52
tp243
a(I64
I100
I53
I70
I60
I329
I183
I53
tp244
a(I68
I98
I50
I65
I55
I296
I168
I47
tp245
a(I70
I98
I52
I69
I61
I444
I269
I57
tp246
a(I58
I91
I52
I65
I56
I481
I268
I57
tp247
a(I69
I90
I48
I54
I53
I446
I261
I52
tp248
a(I77
I85
I45
I55
I53
I444
I261
I49
tp249
a(I72
I119
I47
I53
I55
I450
I273
I53
tp250
a(I74
I121
I41
I44
I47
I359
I190
I43
tp251
a(I75
I121
I42
I48
I50
I342
I194
I54
tp252
a(I63
I115
I46
I46
I55
I372
I244
I57
tp253
a(I58
I128
I46
I44
I61
I416
I248
I62
tp254
a(I62
I107
I50
I43
I64
I454
I245
I61
tp255
a(I55
I108
I57
I53
I63
I416
I249
I60
tp256
a(I51
I112
I57
I61
I65
I405
I259
I54
tp257
a(I63
I146
I55
I59
I69
I427
I238
I63
tp258
a(I63
I136
I59
I65
I77
I470
I240
I70
tp259
a(I56
I140
I54
I63
I75
I426
I248
I68
tp260
a(I54
I133
I55
I60
I78
I525
I254
I78
tp261
a(I61
I143
I61
I51
I77
I517
I247
I78
tp262
a(I52
I113
I60
I50
I70
I493
I247
I72
tp263
a(I48
I116
I55
I43
I60
I416
I241
I60
tp264
a(I50
I101
I57
I47
I59
I445
I256
I61
tp265
a(I55
I100
I50
I40
I55
I358
I253
I47
tp266
a(I54
I73
I42
I42
I59
I395
I269
I57
tp267
a(I77
I102
I45
I49
I60
I391
I251
I58
tp268
a(I79
I102
I47
I52
I58
I394
I252
I61
tp269
a(I80
I108
I46
I49
I57
I376
I235
I61
tp270
a(I91
I125
I51
I49
I57
I364
I228
I60
tp271
a(I88
I146
I56
I51
I59
I424
I248
I65
tp272
a(I66
I128
I55
I47
I59
I412
I259
I63
tp273
a(I70
I123
I55
I46
I57
I411
I259
I61
tp274
a(I76
I119
I54
I47
I59
I403
I252
I61
tp275
a(I65
I151
I64
I51
I64
I405
I280
I64
tp276
a(I71
I133
I56
I47
I58
I362
I279
I54
tp277
a(I79
I132
I57
I44
I60
I359
I263
I54
tp278
a(I80
I133
I58
I43
I63
I362
I265
I56
tp279
a(I74
I146
I60
I45
I68
I358
I280
I55
tp280
a(I76
I119
I46
I44
I66
I355
I269
I53
tp281
a(I86
I121
I46
I40
I61
I315
I227
I48
tp282
a(I84
I120
I43
I38
I63
I317
I240
I47
tp283
a(I81
I123
I40
I39
I62
I399
I266
I52
tp284
a(I81
I127
I39
I37
I77
I515
I247
I73
tp285
a(I81
I124
I41
I34
I76
I507
I214
I75
tp286
a(I71
I126
I49
I40
I77
I485
I210
I75
tp287
a(I69
I124
I47
I44
I76
I475
I198
I76
tp288
a(I65
I125
I50
I44
I77
I418
I183
I73
tp289
a(I63
I105
I47
I49
I65
I388
I264
I63
tp290
a(I65
I109
I48
I51
I66
I379
I275
I62
tp291
a(I59
I112
I44
I52
I67
I384
I276
I61
tp292
a(I56
I126
I53
I53
I75
I540
I284
I74
tp293
a(I69
I125
I52
I52
I76
I543
I269
I73
tp294
a(I72
I135
I57
I53
I71
I466
I203
I65
tp295
a(I64
I119
I56
I52
I67
I495
I215
I65
tp296
a(I64
I121
I57
I51
I67
I554
I243
I70
tp297
a(I65
I125
I54
I53
I60
I421
I237
I56
tp298
a(I58
I138
I55
I55
I59
I422
I246
I60
tp299
a(I68
I130
I51
I50
I63
I518
I307
I79
tp300
a(I68
I148
I50
I49
I63
I487
I279
I76
tp301
a(I68
I149
I56
I54
I70
I426
I301
I74
tp302
a(I70
I155
I51
I48
I68
I416
I296
I74
tp303
a(I67
I151
I56
I50
I67
I398
I288
I70
tp304
a(I59
I156
I63
I55
I65
I348
I236
I55
tp305
a(I60
I142
I65
I57
I65
I456
I266
I62
tp306
a(I60
I129
I58
I54
I60
I452
I230
I59
tp307
a(I58
I147
I65
I55
I61
I445
I237
I55
tp308
a(I58
I138
I62
I57
I67
I529
I254
I69
tp309
a(I50
I137
I56
I50
I67
I476
I230
I61
tp310
a(I45
I134
I55
I47
I68
I367
I201
I53
tp311
asS'forward-right'
p312
(lp313
(I138
I95
I39
I38
I196
I406
I149
I68
tp314
a(I128
I106
I46
I41
I204
I479
I188
I92
tp315
a(I151
I109
I51
I45
I203
I466
I197
I89
tp316
a(I146
I115
I66
I49
I172
I477
I212
I91
tp317
a(I149
I122
I70
I55
I179
I497
I223
I93
tp318
a(I151
I126
I73
I64
I209
I561
I261
I100
tp319
a(I153
I126
I72
I65
I201
I510
I249
I83
tp320
a(I137
I119
I73
I65
I201
I497
I242
I82
tp321
a(I143
I118
I66
I70
I197
I513
I230
I82
tp322
a(I143
I120
I66
I67
I179
I492
I224
I82
tp323
a(I157
I126
I66
I63
I152
I523
I201
I82
tp324
a(I168
I121
I61
I59
I148
I557
I195
I85
tp325
a(I161
I125
I54
I62
I151
I550
I188
I86
tp326
a(I153
I111
I53
I57
I168
I560
I203
I81
tp327
a(I175
I106
I48
I56
I169
I551
I198
I87
tp328
a(I156
I109
I46
I58
I166
I493
I191
I81
tp329
a(I137
I107
I47
I59
I170
I473
I230
I76
tp330
a(I126
I106
I50
I57
I168
I490
I231
I71
tp331
a(I134
I105
I40
I52
I144
I482
I240
I79
tp332
a(I99
I118
I42
I53
I157
I545
I248
I68
tp333
a(I90
I110
I48
I50
I155
I529
I249
I67
tp334
a(I152
I108
I47
I50
I154
I474
I195
I82
tp335
a(I159
I108
I50
I53
I175
I501
I199
I85
tp336
a(I160
I131
I61
I55
I194
I499
I189
I82
tp337
a(I166
I116
I61
I58
I197
I553
I259
I89
tp338
a(I174
I113
I57
I58
I202
I544
I249
I92
tp339
a(I125
I125
I55
I58
I229
I540
I253
I73
tp340
a(I122
I138
I54
I52
I227
I530
I248
I71
tp341
a(I112
I112
I48
I55
I228
I506
I248
I68
tp342
a(I113
I117
I44
I51
I230
I454
I220
I74
tp343
a(I102
I126
I43
I48
I221
I445
I218
I66
tp344
a(I123
I130
I46
I48
I192
I477
I213
I72
tp345
a(I139
I114
I43
I49
I182
I473
I230
I76
tp346
a(I139
I123
I38
I45
I167
I502
I270
I82
tp347
a(I133
I117
I38
I45
I140
I440
I225
I69
tp348
a(I138
I119
I41
I43
I144
I456
I231
I70
tp349
a(I126
I107
I41
I42
I150
I461
I250
I63
tp350
a(I101
I103
I44
I42
I155
I509
I239
I64
tp351
a(I102
I113
I47
I45
I164
I482
I187
I57
tp352
a(I114
I116
I47
I44
I166
I482
I194
I58
tp353
a(I110
I112
I44
I49
I167
I471
I199
I64
tp354
a(I101
I110
I46
I51
I171
I503
I226
I68
tp355
a(I139
I116
I43
I53
I179
I429
I230
I78
tp356
a(I153
I112
I42
I56
I184
I463
I221
I77
tp357
a(I151
I124
I41
I56
I191
I461
I210
I75
tp358
a(I149
I114
I44
I56
I190
I473
I196
I75
tp359
a(I156
I122
I45
I55
I188
I446
I170
I72
tp360
a(I172
I133
I49
I50
I160
I509
I154
I69
tp361
a(I170
I125
I51
I47
I150
I491
I160
I80
tp362
a(I173
I120
I55
I47
I141
I502
I181
I88
tp363
a(I176
I130
I54
I46
I145
I472
I188
I89
tp364
a(I184
I121
I49
I48
I166
I431
I164
I89
tp365
a(I149
I107
I46
I46
I183
I449
I167
I93
tp366
a(I143
I108
I40
I44
I193
I466
I165
I91
tp367
a(I139
I115
I43
I44
I209
I517
I149
I90
tp368
a(I134
I113
I48
I43
I208
I574
I165
I89
tp369
a(I188
I112
I50
I43
I192
I576
I156
I95
tp370
a(I187
I126
I47
I44
I188
I503
I155
I82
tp371
a(I189
I122
I48
I46
I183
I533
I195
I76
tp372
a(I202
I103
I41
I44
I173
I480
I197
I71
tp373
a(I211
I99
I40
I48
I183
I492
I190
I70
tp374
a(I157
I119
I43
I52
I205
I554
I218
I72
tp375
a(I152
I106
I47
I55
I203
I591
I243
I77
tp376
a(I153
I101
I50
I52
I185
I565
I220
I79
tp377
a(I120
I122
I51
I52
I178
I554
I221
I75
tp378
a(I108
I126
I50
I58
I202
I570
I242
I76
tp379
a(I107
I106
I46
I53
I171
I534
I236
I66
tp380
a(I108
I105
I43
I51
I175
I521
I209
I63
tp381
a(I96
I110
I40
I55
I186
I559
I204
I61
tp382
a(I108
I98
I44
I54
I181
I545
I192
I59
tp383
a(I112
I85
I46
I48
I143
I532
I200
I62
tp384
a(I121
I97
I52
I49
I146
I519
I208
I62
tp385
a(I121
I110
I50
I46
I133
I512
I210
I59
tp386
a(I128
I112
I51
I44
I126
I451
I212
I61
tp387
a(I142
I118
I54
I54
I141
I468
I209
I66
tp388
a(I137
I132
I52
I57
I163
I438
I218
I60
tp389
a(I119
I129
I48
I55
I164
I423
I190
I57
tp390
a(I125
I116
I51
I60
I200
I402
I192
I56
tp391
a(I138
I109
I50
I58
I207
I377
I190
I58
tp392
a(I116
I104
I42
I50
I211
I445
I256
I72
tp393
a(I116
I103
I39
I52
I203
I407
I237
I71
tp394
a(I140
I101
I42
I54
I215
I409
I246
I74
tp395
a(I133
I106
I45
I50
I190
I410
I246
I76
tp396
a(I117
I116
I46
I52
I200
I462
I244
I74
tp397
a(I114
I112
I51
I56
I199
I427
I183
I57
tp398
a(I150
I94
I51
I53
I222
I486
I161
I65
tp399
a(I129
I96
I48
I54
I217
I469
I158
I67
tp400
a(I129
I101
I43
I52
I212
I466
I159
I63
tp401
a(I121
I93
I44
I53
I196
I489
I166
I65
tp402
a(I136
I90
I40
I55
I213
I581
I206
I77
tp403
a(I100
I101
I44
I49
I175
I557
I194
I74
tp404
a(I130
I105
I44
I49
I168
I559
I185
I76
tp405
a(I133
I96
I47
I58
I168
I585
I186
I84
tp406
a(I135
I108
I49
I56
I158
I535
I182
I80
tp407
a(I120
I110
I52
I52
I130
I456
I146
I68
tp408
a(I185
I122
I56
I61
I182
I495
I188
I87
tp409
a(I178
I115
I56
I62
I185
I533
I187
I92
tp410
a(I179
I125
I58
I58
I185
I521
I195
I86
tp411
a(I185
I115
I57
I61
I215
I537
I210
I98
tp412
a(I203
I118
I56
I59
I209
I483
I203
I102
tp413
a(I139
I113
I53
I53
I190
I456
I169
I83
tp414
a(I134
I114
I57
I55
I186
I449
I197
I77
tp415
a(I130
I104
I52
I51
I184
I427
I179
I79
tp416
a(I126
I107
I54
I54
I194
I440
I179
I71
tp417
a(I99
I114
I56
I58
I202
I488
I203
I72
tp418
a(I117
I103
I56
I58
I202
I433
I215
I74
tp419
a(I132
I121
I55
I55
I207
I437
I211
I74
tp420
a(I132
I132
I57
I58
I204
I445
I211
I73
tp421
a(I128
I130
I56
I56
I176
I413
I191
I70
tp422
a(I161
I120
I53
I54
I185
I388
I192
I79
tp423
a(I163
I119
I49
I51
I161
I383
I182
I81
tp424
a(I146
I117
I48
I49
I147
I327
I183
I80
tp425
a(I145
I101
I44
I48
I172
I356
I189
I79
tp426
a(I157
I98
I45
I51
I173
I335
I189
I77
tp427
a(I128
I112
I43
I49
I157
I360
I171
I64
tp428
a(I129
I110
I41
I49
I157
I380
I166
I65
tp429
a(I165
I98
I47
I51
I173
I378
I133
I74
tp430
a(I167
I104
I48
I53
I176
I404
I136
I76
tp431
a(I155
I140
I52
I48
I191
I450
I239
I76
tp432
a(I171
I128
I55
I47
I187
I417
I227
I75
tp433
a(I161
I128
I60
I52
I204
I440
I241
I71
tp434
a(I122
I140
I53
I54
I201
I559
I254
I68
tp435
a(I123
I141
I54
I54
I197
I548
I253
I65
tp436
a(I140
I105
I49
I56
I175
I534
I172
I67
tp437
a(I119
I118
I48
I58
I189
I590
I184
I69
tp438
a(I114
I132
I47
I56
I177
I579
I175
I73
tp439
a(I133
I118
I45
I53
I197
I512
I180
I75
tp440
a(I130
I124
I44
I51
I186
I529
I209
I81
tp441
a(I121
I138
I44
I46
I187
I514
I207
I79
tp442
a(I137
I136
I47
I49
I183
I464
I206
I78
tp443
a(I143
I121
I50
I51
I182
I503
I214
I82
tp444
a(I150
I124
I51
I51
I155
I453
I212
I75
tp445
a(I150
I132
I58
I51
I158
I403
I179
I74
tp446
a(I151
I114
I61
I57
I160
I468
I175
I74
tp447
a(I133
I106
I59
I60
I167
I524
I166
I70
tp448
a(I134
I153
I59
I56
I174
I470
I164
I59
tp449
a(I104
I147
I58
I55
I170
I503
I167
I54
tp450
a(I123
I129
I53
I56
I169
I574
I198
I50
tp451
a(I140
I130
I49
I48
I161
I559
I207
I60
tp452
a(I144
I157
I55
I45
I144
I507
I213
I64
tp453
a(I137
I110
I51
I47
I135
I525
I195
I64
tp454
a(I138
I111
I52
I47
I138
I508
I172
I66
tp455
a(I143
I122
I51
I45
I127
I459
I150
I73
tp456
a(I125
I127
I47
I45
I123
I426
I137
I71
tp457
a(I118
I90
I37
I45
I130
I443
I146
I69
tp458
a(I120
I97
I39
I43
I118
I424
I158
I73
tp459
a(I125
I116
I41
I42
I109
I408
I158
I68
tp460
a(I96
I113
I40
I42
I108
I371
I154
I56
tp461
a(I91
I110
I41
I45
I122
I378
I179
I57
tp462
a(I122
I111
I41
I39
I114
I495
I222
I63
tp463
a(I125
I117
I42
I42
I130
I512
I219
I59
tp464
a(I116
I101
I43
I40
I143
I513
I234
I59
tp465
a(I146
I100
I44
I43
I153
I498
I242
I67
tp466
a(I146
I102
I51
I38
I145
I476
I219
I60
tp467
a(I123
I102
I52
I38
I149
I336
I163
I52
tp468
a(I137
I102
I51
I35
I141
I313
I166
I59
tp469
asS'stop'
p470
(lp471
(I503
I216
I95
I284
I164
I572
I974
I355
tp472
a(I493
I194
I97
I284
I166
I565
I882
I323
tp473
a(I504
I203
I88
I250
I146
I520
I955
I339
tp474
a(I577
I195
I87
I221
I133
I580
I894
I337
tp475
a(I587
I183
I98
I237
I152
I641
I947
I407
tp476
a(I544
I168
I80
I258
I167
I652
I1041
I475
tp477
a(I609
I176
I72
I261
I163
I621
I1027
I486
tp478
a(I646
I168
I83
I259
I168
I611
I1148
I611
tp479
a(I739
I191
I88
I322
I174
I565
I1254
I756
tp480
a(I863
I220
I92
I322
I158
I505
I1296
I817
tp481
a(I930
I219
I101
I317
I163
I550
I1362
I868
tp482
a(I926
I218
I112
I332
I164
I606
I1456
I881
tp483
a(I962
I245
I111
I325
I178
I625
I1417
I794
tp484
a(I874
I216
I117
I309
I204
I635
I1360
I681
tp485
a(I770
I181
I111
I289
I219
I658
I1304
I614
tp486
a(I765
I186
I114
I297
I215
I604
I1200
I525
tp487
a(I739
I176
I108
I291
I216
I578
I1106
I510
tp488
a(I662
I136
I102
I285
I214
I619
I997
I526
tp489
a(I627
I178
I96
I268
I199
I615
I1133
I547
tp490
a(I624
I200
I101
I321
I198
I653
I1230
I529
tp491
a(I533
I187
I97
I313
I194
I660
I1244
I494
tp492
a(I526
I208
I107
I310
I194
I649
I1291
I472
tp493
a(I513
I251
I123
I314
I179
I606
I1308
I443
tp494
a(I585
I223
I117
I276
I154
I553
I1227
I405
tp495
a(I615
I209
I107
I217
I142
I486
I1124
I356
tp496
a(I606
I226
I112
I198
I131
I517
I1126
I394
tp497
a(I644
I220
I103
I217
I141
I567
I1125
I412
tp498
a(I658
I176
I85
I204
I146
I544
I1114
I400
tp499
a(I619
I171
I88
I230
I148
I601
I1017
I374
tp500
a(I571
I196
I98
I230
I148
I589
I1009
I398
tp501
a(I596
I201
I89
I238
I149
I534
I927
I342
tp502
a(I514
I190
I88
I233
I145
I503
I823
I305
tp503
a(I598
I185
I88
I226
I145
I558
I782
I301
tp504
a(I552
I204
I103
I201
I156
I534
I745
I281
tp505
a(I531
I189
I101
I178
I146
I563
I569
I219
tp506
a(I506
I171
I101
I172
I142
I552
I541
I219
tp507
a(I507
I166
I98
I151
I147
I519
I564
I218
tp508
a(I394
I173
I95
I169
I138
I440
I514
I211
tp509
a(I457
I158
I91
I187
I169
I510
I611
I247
tp510
a(I458
I157
I91
I217
I191
I473
I665
I270
tp511
a(I515
I155
I87
I251
I190
I478
I644
I288
tp512
a(I590
I162
I93
I312
I209
I492
I744
I351
tp513
a(I620
I162
I99
I317
I220
I531
I748
I364
tp514
a(I570
I156
I95
I303
I189
I481
I679
I336
tp515
a(I574
I145
I98
I295
I169
I463
I658
I329
tp516
a(I497
I146
I105
I289
I176
I473
I688
I318
tp517
a(I530
I159
I100
I246
I149
I533
I572
I292
tp518
a(I564
I184
I93
I257
I153
I593
I704
I380
tp519
a(I651
I199
I87
I266
I155
I579
I736
I385
tp520
a(I729
I198
I91
I256
I158
I606
I763
I378
tp521
a(I806
I192
I88
I234
I159
I597
I739
I387
tp522
a(I758
I194
I86
I210
I160
I571
I789
I366
tp523
a(I726
I162
I97
I179
I139
I506
I704
I304
tp524
a(I757
I154
I103
I187
I148
I512
I730
I330
tp525
a(I715
I174
I90
I191
I141
I550
I730
I349
tp526
a(I624
I177
I92
I201
I138
I547
I803
I380
tp527
a(I636
I164
I94
I201
I129
I591
I734
I377
tp528
a(I658
I166
I84
I198
I130
I613
I784
I391
tp529
a(I551
I158
I78
I197
I127
I632
I755
I382
tp530
a(I514
I125
I85
I219
I128
I561
I778
I367
tp531
a(I538
I137
I84
I209
I128
I563
I744
I322
tp532
a(I516
I182
I88
I201
I146
I531
I881
I343
tp533
a(I442
I177
I90
I214
I153
I508
I802
I303
tp534
a(I466
I173
I90
I199
I142
I467
I767
I307
tp535
a(I581
I215
I85
I177
I156
I534
I738
I316
tp536
a(I563
I202
I93
I166
I153
I584
I696
I317
tp537
a(I555
I158
I84
I156
I128
I534
I534
I292
tp538
a(I556
I159
I85
I194
I137
I572
I553
I273
tp539
a(I518
I219
I96
I207
I139
I639
I568
I234
tp540
a(I398
I197
I98
I202
I121
I597
I523
I226
tp541
a(I512
I206
I95
I234
I148
I585
I579
I238
tp542
a(I498
I208
I101
I255
I151
I582
I636
I232
tp543
a(I579
I217
I116
I232
I137
I576
I658
I289
tp544
a(I609
I177
I107
I234
I142
I493
I687
I318
tp545
a(I584
I163
I107
I248
I154
I504
I703
I302
tp546
a(I491
I172
I108
I215
I129
I528
I685
I278
tp547
a(I505
I178
I104
I216
I130
I603
I623
I276
tp548
a(I427
I170
I84
I207
I131
I597
I654
I278
tp549
a(I383
I159
I84
I196
I123
I583
I647
I251
tp550
a(I426
I154
I78
I176
I119
I674
I623
I255
tp551
a(I398
I130
I77
I206
I149
I681
I649
I295
tp552
a(I415
I114
I80
I193
I149
I630
I638
I300
tp553
a(I492
I115
I79
I196
I157
I565
I565
I311
tp554
a(I547
I127
I78
I201
I160
I632
I534
I308
tp555
a(I545
I151
I83
I211
I150
I529
I517
I307
tp556
a(I592
I157
I75
I189
I130
I457
I431
I294
tp557
a(I617
I162
I73
I174
I126
I434
I459
I311
tp558
a(I536
I161
I74
I166
I120
I477
I514
I226
tp559
a(I518
I159
I81
I180
I112
I401
I510
I242
tp560
a(I630
I136
I87
I199
I119
I425
I530
I283
tp561
a(I634
I147
I94
I201
I108
I517
I505
I289
tp562
a(I589
I142
I91
I209
I111
I516
I516
I274
tp563
a(I640
I157
I98
I210
I108
I505
I458
I306
tp564
a(I637
I210
I104
I187
I133
I641
I478
I308
tp565
a(I534
I214
I102
I168
I136
I672
I526
I284
tp566
a(I562
I216
I95
I172
I140
I671
I557
I259
tp567
a(I604
I245
I98
I192
I137
I731
I508
I258
tp568
a(I594
I251
I102
I183
I140
I743
I513
I247
tp569
a(I601
I210
I89
I194
I128
I638
I573
I235
tp570
a(I619
I214
I96
I209
I123
I591
I559
I231
tp571
a(I605
I209
I96
I199
I122
I504
I535
I262
tp572
a(I604
I198
I96
I173
I133
I503
I573
I280
tp573
a(I635
I175
I97
I177
I126
I463
I576
I270
tp574
a(I626
I176
I101
I176
I129
I504
I475
I264
tp575
a(I588
I175
I100
I181
I130
I550
I443
I254
tp576
a(I569
I169
I99
I191
I130
I554
I495
I210
tp577
a(I519
I154
I96
I199
I127
I495
I472
I167
tp578
a(I448
I158
I93
I200
I126
I582
I453
I147
tp579
a(I495
I153
I91
I195
I123
I540
I460
I189
tp580
a(I492
I143
I80
I168
I120
I483
I472
I212
tp581
a(I512
I143
I87
I155
I117
I589
I556
I265
tp582
a(I577
I171
I92
I173
I110
I570
I589
I327
tp583
a(I563
I177
I90
I169
I111
I510
I596
I341
tp584
a(I547
I193
I91
I167
I106
I502
I623
I340
tp585
a(I582
I210
I96
I190
I111
I513
I655
I326
tp586
a(I574
I221
I94
I205
I110
I391
I575
I294
tp587
a(I515
I192
I96
I184
I111
I414
I558
I235
tp588
a(I567
I193
I100
I217
I115
I425
I585
I234
tp589
a(I597
I203
I106
I221
I116
I520
I563
I210
tp590
a(I588
I183
I99
I246
I119
I521
I592
I245
tp591
a(I589
I173
I97
I241
I114
I521
I590
I253
tp592
a(I606
I196
I92
I240
I115
I561
I584
I248
tp593
a(I558
I191
I95
I209
I107
I550
I593
I233
tp594
a(I482
I198
I79
I201
I119
I498
I595
I235
tp595
a(I502
I212
I84
I131
I110
I499
I520
I200
tp596
a(I464
I210
I80
I126
I127
I525
I511
I181
tp597
a(I421
I203
I79
I119
I127
I481
I501
I171
tp598
a(I404
I208
I64
I130
I132
I457
I451
I172
tp599
a(I550
I173
I76
I140
I122
I464
I444
I198
tp600
a(I537
I181
I73
I140
I125
I496
I450
I206
tp601
a(I552
I185
I77
I137
I111
I535
I430
I212
tp602
a(I565
I176
I79
I139
I105
I529
I405
I206
tp603
a(I612
I166
I86
I155
I106
I552
I505
I260
tp604
a(I477
I173
I78
I156
I104
I561
I549
I252
tp605
a(I485
I143
I80
I168
I109
I559
I562
I250
tp606
a(I564
I142
I78
I171
I111
I525
I543
I265
tp607
a(I562
I174
I95
I174
I114
I535
I649
I274
tp608
a(I514
I169
I89
I169
I118
I522
I565
I226
tp609
a(I531
I149
I90
I163
I115
I473
I506
I198
tp610
a(I511
I166
I94
I154
I120
I480
I490
I191
tp611
a(I549
I167
I98
I145
I114
I443
I527
I186
tp612
a(I599
I131
I78
I151
I109
I411
I426
I189
tp613
a(I607
I129
I75
I134
I98
I488
I415
I184
tp614
a(I614
I143
I76
I149
I108
I530
I425
I182
tp615
a(I612
I127
I70
I154
I102
I474
I399
I193
tp616
a(I580
I157
I74
I168
I101
I455
I393
I244
tp617
a(I631
I158
I74
I164
I113
I493
I365
I298
tp618
a(I680
I162
I78
I185
I130
I533
I360
I303
tp619
a(I694
I158
I73
I173
I123
I487
I382
I323
tp620
a(I820
I171
I83
I214
I144
I497
I399
I391
tp621
a(I772
I150
I79
I207
I146
I535
I428
I352
tp622
a(I720
I168
I81
I229
I150
I577
I445
I321
tp623
a(I677
I166
I81
I217
I139
I465
I450
I319
tp624
asS'backward-left'
p625
(lp626
(I167
I334
I99
I169
I212
I414
I247
I89
tp627
a(I160
I317
I103
I159
I228
I440
I224
I88
tp628
a(I157
I343
I105
I167
I216
I428
I181
I92
tp629
a(I140
I316
I99
I169
I217
I414
I195
I94
tp630
a(I139
I310
I98
I168
I220
I393
I190
I98
tp631
a(I126
I283
I91
I145
I198
I460
I172
I100
tp632
a(I136
I253
I82
I161
I146
I381
I168
I102
tp633
a(I146
I202
I83
I159
I162
I401
I164
I107
tp634
a(I172
I242
I94
I159
I156
I438
I164
I133
tp635
a(I195
I273
I90
I157
I153
I458
I178
I129
tp636
a(I212
I292
I89
I154
I158
I392
I171
I123
tp637
a(I205
I290
I99
I185
I247
I426
I191
I118
tp638
a(I198
I295
I99
I188
I244
I431
I198
I113
tp639
a(I182
I281
I99
I191
I260
I408
I218
I87
tp640
a(I162
I266
I101
I198
I278
I389
I206
I90
tp641
a(I140
I231
I103
I195
I287
I399
I218
I101
tp642
a(I134
I239
I115
I177
I215
I369
I201
I98
tp643
a(I135
I261
I117
I170
I208
I374
I216
I103
tp644
a(I133
I262
I105
I167
I210
I476
I195
I112
tp645
a(I123
I275
I102
I163
I195
I470
I202
I103
tp646
a(I148
I273
I104
I167
I185
I498
I203
I104
tp647
a(I154
I295
I80
I172
I206
I533
I201
I123
tp648
a(I152
I290
I89
I206
I214
I518
I190
I121
tp649
a(I157
I288
I89
I203
I205
I380
I185
I112
tp650
a(I148
I260
I95
I204
I200
I449
I177
I118
tp651
a(I125
I263
I90
I218
I227
I415
I171
I112
tp652
a(I125
I230
I97
I195
I210
I396
I191
I106
tp653
a(I130
I209
I83
I159
I198
I378
I173
I99
tp654
a(I147
I199
I94
I176
I211
I376
I180
I111
tp655
a(I150
I222
I88
I168
I208
I296
I180
I110
tp656
a(I149
I241
I85
I142
I184
I270
I168
I105
tp657
a(I161
I293
I90
I156
I222
I202
I144
I101
tp658
a(I151
I294
I92
I158
I224
I271
I156
I102
tp659
a(I170
I332
I84
I153
I221
I273
I130
I95
tp660
a(I194
I354
I118
I196
I243
I257
I130
I125
tp661
a(I202
I376
I120
I194
I246
I339
I134
I132
tp662
a(I199
I329
I110
I181
I206
I379
I169
I124
tp663
a(I205
I351
I115
I186
I208
I367
I157
I123
tp664
a(I199
I388
I115
I198
I246
I377
I154
I131
tp665
a(I175
I360
I87
I168
I238
I399
I157
I103
tp666
a(I172
I365
I86
I169
I222
I334
I148
I93
tp667
a(I160
I372
I90
I186
I226
I361
I159
I95
tp668
a(I158
I373
I83
I180
I220
I343
I161
I108
tp669
a(I127
I303
I81
I157
I151
I369
I163
I91
tp670
a(I135
I300
I79
I146
I138
I351
I150
I95
tp671
a(I125
I265
I84
I151
I166
I342
I147
I98
tp672
a(I125
I272
I92
I156
I187
I298
I114
I102
tp673
a(I130
I238
I88
I148
I192
I371
I155
I90
tp674
a(I134
I268
I89
I146
I189
I333
I181
I92
tp675
a(I133
I276
I86
I160
I191
I371
I204
I85
tp676
a(I135
I267
I80
I197
I231
I426
I222
I84
tp677
a(I136
I248
I68
I177
I228
I492
I233
I80
tp678
a(I131
I246
I69
I200
I232
I432
I211
I80
tp679
a(I146
I289
I79
I203
I230
I452
I203
I81
tp680
a(I148
I311
I79
I189
I228
I427
I193
I84
tp681
a(I148
I315
I81
I144
I166
I486
I196
I87
tp682
a(I179
I341
I98
I199
I221
I413
I187
I130
tp683
a(I178
I350
I99
I178
I218
I411
I180
I134
tp684
a(I163
I288
I99
I183
I217
I378
I164
I129
tp685
a(I163
I290
I98
I189
I213
I373
I151
I128
tp686
a(I163
I285
I100
I192
I233
I335
I159
I130
tp687
a(I139
I281
I81
I165
I170
I312
I137
I91
tp688
a(I146
I276
I79
I176
I175
I359
I136
I86
tp689
a(I154
I278
I77
I180
I189
I367
I148
I84
tp690
a(I160
I261
I78
I183
I206
I383
I161
I82
tp691
a(I163
I277
I81
I196
I192
I293
I129
I79
tp692
a(I158
I288
I101
I183
I211
I345
I129
I104
tp693
a(I165
I293
I105
I183
I215
I308
I145
I114
tp694
a(I149
I275
I95
I168
I199
I331
I152
I113
tp695
a(I130
I279
I95
I164
I182
I304
I138
I124
tp696
a(I122
I257
I91
I152
I195
I360
I146
I120
tp697
a(I152
I219
I71
I134
I171
I364
I163
I107
tp698
a(I169
I208
I66
I135
I164
I390
I194
I114
tp699
a(I184
I245
I77
I145
I169
I380
I188
I120
tp700
a(I194
I231
I76
I151
I168
I400
I193
I118
tp701
a(I201
I275
I74
I150
I148
I341
I187
I117
tp702
a(I187
I316
I78
I159
I141
I290
I169
I113
tp703
a(I177
I366
I78
I157
I129
I283
I129
I97
tp704
a(I166
I352
I82
I160
I149
I252
I141
I91
tp705
a(I163
I350
I86
I150
I165
I227
I130
I90
tp706
a(I165
I342
I91
I142
I155
I241
I128
I96
tp707
a(I174
I302
I88
I151
I178
I279
I135
I92
tp708
a(I153
I234
I92
I148
I183
I272
I136
I89
tp709
a(I181
I257
I100
I168
I200
I305
I124
I107
tp710
a(I177
I270
I102
I171
I193
I316
I131
I103
tp711
a(I173
I229
I108
I194
I206
I301
I126
I97
tp712
a(I150
I216
I108
I200
I236
I286
I121
I91
tp713
a(I152
I265
I121
I224
I252
I273
I121
I97
tp714
a(I115
I257
I115
I216
I245
I239
I117
I78
tp715
a(I120
I257
I120
I228
I250
I309
I140
I77
tp716
a(I112
I263
I118
I218
I245
I326
I172
I83
tp717
a(I172
I315
I131
I227
I209
I333
I195
I109
tp718
a(I187
I287
I136
I212
I203
I369
I202
I106
tp719
a(I183
I286
I137
I212
I181
I366
I196
I101
tp720
a(I184
I268
I130
I198
I177
I292
I178
I100
tp721
a(I187
I301
I126
I189
I170
I270
I147
I94
tp722
a(I137
I291
I115
I164
I158
I223
I112
I64
tp723
a(I133
I308
I100
I147
I133
I126
I106
I65
tp724
a(I166
I340
I99
I144
I202
I377
I148
I77
tp725
a(I173
I374
I100
I159
I205
I408
I177
I79
tp726
a(I171
I343
I96
I158
I208
I424
I185
I78
tp727
a(I202
I320
I101
I179
I213
I469
I197
I117
tp728
a(I193
I306
I103
I186
I218
I489
I189
I129
tp729
a(I169
I253
I90
I176
I175
I354
I158
I124
tp730
a(I157
I205
I92
I177
I182
I327
I140
I123
tp731
a(I167
I218
I96
I187
I183
I319
I140
I130
tp732
a(I146
I232
I87
I174
I193
I293
I138
I99
tp733
a(I138
I228
I74
I165
I197
I299
I128
I85
tp734
a(I140
I222
I74
I159
I175
I345
I134
I85
tp735
a(I141
I283
I76
I154
I161
I369
I120
I89
tp736
a(I183
I296
I71
I141
I163
I373
I119
I132
tp737
a(I173
I284
I75
I123
I132
I355
I117
I136
tp738
a(I171
I281
I82
I132
I123
I314
I124
I136
tp739
a(I176
I330
I88
I127
I132
I287
I123
I136
tp740
a(I228
I302
I85
I121
I118
I278
I127
I151
tp741
a(I200
I282
I96
I143
I133
I269
I119
I141
tp742
a(I203
I362
I103
I151
I175
I258
I103
I141
tp743
a(I208
I382
I108
I177
I223
I282
I116
I137
tp744
a(I210
I360
I111
I192
I222
I228
I112
I136
tp745
a(I160
I346
I111
I187
I244
I189
I103
I121
tp746
a(I144
I349
I108
I178
I236
I177
I103
I87
tp747
a(I157
I274
I104
I189
I233
I189
I104
I122
tp748
a(I164
I239
I98
I170
I194
I148
I96
I134
tp749
a(I174
I257
I92
I156
I223
I257
I95
I146
tp750
a(I167
I279
I87
I155
I214
I355
I101
I146
tp751
a(I168
I281
I88
I191
I264
I387
I104
I147
tp752
a(I159
I261
I84
I186
I268
I377
I104
I115
tp753
a(I158
I300
I87
I180
I273
I395
I111
I104
tp754
a(I161
I276
I83
I179
I249
I340
I107
I86
tp755
a(I158
I256
I84
I196
I242
I308
I105
I82
tp756
a(I161
I252
I78
I163
I197
I272
I103
I77
tp757
a(I149
I278
I73
I153
I172
I270
I104
I73
tp758
a(I147
I248
I65
I149
I153
I272
I86
I76
tp759
a(I152
I223
I66
I145
I147
I328
I108
I81
tp760
a(I158
I232
I72
I139
I163
I271
I112
I73
tp761
a(I155
I237
I71
I135
I173
I269
I110
I71
tp762
a(I160
I222
I68
I129
I175
I270
I113
I70
tp763
a(I150
I242
I68
I122
I171
I269
I111
I63
tp764
a(I129
I266
I71
I123
I177
I230
I96
I57
tp765
a(I127
I244
I81
I145
I166
I218
I102
I60
tp766
a(I137
I238
I81
I145
I187
I276
I117
I73
tp767
a(I132
I269
I88
I164
I210
I312
I114
I74
tp768
a(I144
I246
I91
I184
I220
I388
I135
I77
tp769
a(I145
I231
I88
I186
I218
I374
I138
I77
tp770
a(I141
I261
I71
I151
I210
I375
I127
I74
tp771
a(I124
I280
I77
I155
I174
I355
I115
I61
tp772
a(I127
I246
I76
I182
I218
I323
I120
I59
tp773
a(I115
I252
I75
I168
I221
I278
I125
I59
tp774
a(I122
I240
I74
I166
I224
I278
I131
I63
tp775
a(I148
I219
I89
I201
I307
I355
I137
I79
tp776
a(I150
I186
I81
I198
I313
I336
I140
I80
tp777
a(I155
I189
I76
I161
I263
I339
I134
I82
tp778
a(I164
I190
I75
I171
I280
I277
I116
I82
tp779
a(I158
I199
I77
I175
I280
I289
I129
I79
tp780
a(I130
I190
I60
I138
I186
I246
I137
I63
tp781
a(I133
I192
I58
I126
I171
I249
I135
I60
tp782
asS'forward'
p783
(lp784
(I212
I178
I49
I42
I86
I460
I346
I91
tp785
a(I194
I149
I50
I39
I91
I428
I306
I82
tp786
a(I216
I136
I48
I38
I89
I407
I294
I79
tp787
a(I252
I117
I43
I33
I80
I449
I295
I92
tp788
a(I292
I131
I57
I39
I84
I446
I282
I91
tp789
a(I307
I133
I61
I40
I83
I412
I272
I85
tp790
a(I321
I147
I64
I45
I83
I520
I285
I91
tp791
a(I303
I161
I66
I45
I83
I520
I278
I90
tp792
a(I268
I160
I79
I51
I86
I459
I267
I89
tp793
a(I223
I153
I76
I50
I87
I501
I281
I100
tp794
a(I215
I199
I72
I50
I88
I570
I252
I106
tp795
a(I212
I189
I73
I45
I88
I471
I230
I104
tp796
a(I258
I192
I75
I46
I91
I512
I271
I118
tp797
a(I252
I194
I63
I42
I87
I531
I285
I109
tp798
a(I268
I206
I55
I40
I90
I505
I274
I101
tp799
a(I290
I181
I56
I43
I92
I443
I247
I95
tp800
a(I283
I179
I52
I45
I85
I441
I234
I88
tp801
a(I263
I191
I60
I46
I90
I407
I230
I73
tp802
a(I278
I193
I59
I46
I101
I438
I232
I84
tp803
a(I272
I167
I62
I44
I96
I423
I237
I83
tp804
a(I243
I147
I60
I42
I89
I391
I267
I83
tp805
a(I245
I182
I61
I42
I98
I487
I285
I93
tp806
a(I238
I161
I46
I39
I90
I488
I270
I90
tp807
a(I230
I157
I44
I35
I75
I426
I260
I96
tp808
a(I234
I170
I41
I38
I82
I447
I256
I103
tp809
a(I226
I171
I41
I37
I84
I465
I261
I104
tp810
a(I215
I154
I40
I36
I91
I386
I271
I103
tp811
a(I196
I157
I53
I42
I114
I423
I292
I110
tp812
a(I208
I172
I57
I42
I114
I447
I279
I101
tp813
a(I200
I172
I56
I42
I109
I410
I271
I88
tp814
a(I204
I182
I58
I41
I114
I378
I220
I81
tp815
a(I203
I169
I58
I39
I104
I353
I213
I75
tp816
a(I245
I183
I55
I37
I85
I375
I183
I93
tp817
a(I246
I184
I61
I38
I84
I380
I275
I91
tp818
a(I267
I195
I64
I35
I82
I382
I295
I99
tp819
a(I264
I192
I65
I39
I88
I388
I311
I99
tp820
a(I267
I219
I66
I39
I87
I393
I311
I96
tp821
a(I252
I202
I63
I40
I89
I356
I318
I82
tp822
a(I256
I193
I58
I39
I97
I357
I246
I79
tp823
a(I237
I202
I57
I40
I102
I392
I239
I86
tp824
a(I262
I223
I57
I43
I93
I450
I254
I95
tp825
a(I267
I193
I54
I43
I92
I440
I241
I102
tp826
a(I283
I211
I56
I43
I89
I425
I241
I101
tp827
a(I304
I229
I54
I43
I85
I409
I249
I101
tp828
a(I318
I205
I49
I44
I80
I414
I263
I94
tp829
a(I339
I168
I48
I40
I76
I366
I236
I98
tp830
a(I339
I180
I49
I39
I75
I400
I246
I93
tp831
a(I342
I169
I43
I35
I77
I367
I226
I88
tp832
a(I323
I150
I41
I37
I85
I390
I218
I91
tp833
a(I318
I145
I47
I37
I89
I395
I233
I87
tp834
a(I273
I150
I46
I37
I88
I393
I253
I73
tp835
a(I250
I136
I43
I36
I90
I350
I234
I71
tp836
a(I201
I115
I41
I35
I84
I370
I217
I65
tp837
a(I162
I102
I42
I35
I77
I349
I210
I63
tp838
a(I182
I141
I43
I31
I81
I302
I193
I75
tp839
a(I226
I141
I55
I32
I100
I286
I201
I81
tp840
a(I260
I143
I60
I33
I95
I341
I221
I79
tp841
a(I271
I158
I64
I32
I95
I361
I238
I86
tp842
a(I336
I161
I73
I34
I94
I334
I241
I97
tp843
a(I327
I134
I73
I36
I88
I334
I226
I88
tp844
a(I310
I134
I73
I39
I79
I386
I234
I90
tp845
a(I300
I140
I70
I38
I85
I343
I216
I90
tp846
a(I303
I152
I72
I39
I89
I294
I204
I86
tp847
a(I298
I165
I67
I36
I92
I326
I205
I80
tp848
a(I307
I166
I69
I39
I98
I356
I194
I97
tp849
a(I300
I176
I63
I40
I93
I296
I149
I90
tp850
a(I294
I185
I63
I40
I91
I334
I198
I97
tp851
a(I281
I170
I60
I41
I89
I359
I244
I95
tp852
a(I221
I150
I59
I47
I98
I358
I240
I94
tp853
a(I181
I148
I55
I46
I94
I356
I237
I78
tp854
a(I173
I147
I55
I42
I90
I349
I238
I78
tp855
a(I165
I129
I53
I42
I94
I323
I196
I70
tp856
a(I180
I151
I62
I49
I102
I409
I246
I100
tp857
a(I209
I169
I66
I47
I102
I401
I278
I93
tp858
a(I211
I168
I65
I46
I105
I413
I285
I99
tp859
a(I218
I161
I66
I48
I111
I447
I290
I104
tp860
a(I235
I155
I67
I48
I108
I476
I300
I110
tp861
a(I236
I135
I55
I45
I104
I453
I267
I93
tp862
a(I214
I128
I50
I44
I89
I447
I265
I91
tp863
a(I285
I163
I58
I52
I103
I452
I271
I86
tp864
a(I288
I163
I56
I51
I97
I431
I284
I78
tp865
a(I292
I169
I66
I53
I94
I393
I282
I66
tp866
a(I288
I181
I66
I51
I94
I347
I269
I70
tp867
a(I282
I179
I63
I52
I104
I426
I255
I80
tp868
a(I329
I151
I61
I44
I91
I386
I240
I93
tp869
a(I337
I160
I67
I46
I99
I411
I230
I108
tp870
a(I331
I152
I59
I44
I104
I500
I236
I113
tp871
a(I455
I158
I67
I43
I112
I546
I215
I121
tp872
a(I464
I165
I71
I44
I109
I498
I199
I124
tp873
a(I394
I168
I66
I40
I100
I524
I235
I116
tp874
a(I452
I154
I66
I39
I101
I535
I218
I113
tp875
a(I477
I158
I66
I40
I100
I456
I201
I114
tp876
a(I360
I133
I58
I38
I87
I453
I271
I102
tp877
a(I370
I122
I54
I34
I91
I450
I283
I93
tp878
a(I373
I118
I57
I39
I108
I437
I278
I92
tp879
a(I290
I115
I48
I42
I106
I398
I281
I87
tp880
a(I227
I112
I44
I40
I107
I423
I314
I81
tp881
a(I219
I124
I43
I40
I108
I332
I242
I70
tp882
a(I214
I118
I44
I40
I103
I334
I232
I70
tp883
a(I191
I111
I38
I41
I92
I320
I235
I67
tp884
a(I203
I155
I40
I37
I88
I312
I237
I58
tp885
a(I235
I171
I43
I37
I89
I346
I199
I70
tp886
a(I263
I170
I46
I45
I103
I432
I264
I80
tp887
a(I248
I186
I43
I44
I111
I445
I256
I83
tp888
a(I250
I188
I46
I42
I109
I440
I237
I86
tp889
a(I257
I162
I47
I43
I112
I481
I266
I97
tp890
a(I243
I159
I59
I57
I116
I491
I308
I92
tp891
a(I240
I174
I55
I52
I108
I443
I273
I84
tp892
a(I239
I169
I59
I54
I99
I436
I280
I90
tp893
a(I265
I173
I60
I57
I98
I454
I287
I91
tp894
a(I242
I170
I58
I57
I106
I461
I276
I88
tp895
a(I228
I180
I48
I43
I103
I415
I241
I84
tp896
a(I221
I184
I56
I44
I98
I443
I242
I98
tp897
a(I209
I174
I59
I43
I102
I461
I251
I92
tp898
a(I171
I167
I54
I38
I103
I431
I249
I88
tp899
a(I196
I170
I54
I36
I88
I366
I231
I82
tp900
a(I216
I157
I65
I44
I92
I354
I213
I84
tp901
a(I207
I128
I57
I44
I100
I470
I253
I88
tp902
a(I202
I183
I56
I48
I102
I455
I253
I86
tp903
a(I221
I197
I58
I47
I97
I484
I268
I90
tp904
a(I219
I191
I62
I55
I110
I513
I273
I103
tp905
a(I212
I201
I53
I49
I106
I518
I301
I112
tp906
a(I198
I207
I55
I49
I99
I373
I249
I99
tp907
a(I195
I168
I59
I46
I93
I369
I272
I102
tp908
a(I182
I163
I67
I49
I97
I353
I268
I104
tp909
a(I162
I156
I68
I43
I86
I454
I297
I97
tp910
a(I156
I128
I70
I45
I86
I479
I274
I84
tp911
a(I187
I134
I73
I46
I99
I531
I281
I90
tp912
a(I188
I124
I67
I45
I98
I529
I259
I83
tp913
a(I201
I139
I80
I49
I95
I565
I259
I85
tp914
a(I220
I167
I83
I48
I101
I500
I228
I89
tp915
a(I215
I176
I80
I46
I99
I464
I221
I86
tp916
a(I194
I169
I80
I44
I90
I410
I230
I82
tp917
a(I222
I187
I85
I50
I92
I470
I266
I94
tp918
a(I215
I195
I72
I43
I89
I430
I249
I88
tp919
a(I196
I211
I67
I43
I86
I385
I247
I81
tp920
a(I189
I207
I69
I43
I95
I430
I251
I80
tp921
a(I201
I227
I66
I43
I88
I466
I254
I86
tp922
a(I170
I224
I62
I38
I83
I392
I194
I75
tp923
a(I199
I204
I58
I38
I82
I367
I177
I70
tp924
a(I190
I178
I55
I41
I92
I521
I166
I70
tp925
a(I198
I194
I52
I42
I79
I536
I176
I94
tp926
a(I215
I175
I56
I41
I90
I502
I162
I92
tp927
a(I224
I168
I54
I41
I93
I576
I199
I98
tp928
a(I219
I173
I54
I46
I99
I669
I296
I104
tp929
a(I222
I162
I56
I42
I83
I563
I301
I102
tp930
a(I223
I199
I55
I42
I83
I531
I296
I83
tp931
a(I202
I189
I56
I47
I72
I560
I328
I81
tp932
a(I200
I178
I50
I43
I75
I554
I346
I82
tp933
a(I177
I209
I48
I41
I67
I439
I292
I75
tp934
a(I171
I218
I45
I44
I80
I486
I307
I82
tp935
a(I164
I195
I43
I42
I84
I480
I307
I84
tp936
a(I157
I198
I41
I41
I92
I496
I301
I89
tp937
asS'backward'
p938
(lp939
(I268
I365
I128
I263
I410
I678
I274
I170
tp940
a(I290
I324
I137
I260
I374
I713
I285
I178
tp941
a(I293
I337
I121
I207
I312
I676
I280
I173
tp942
a(I303
I344
I119
I204
I302
I683
I276
I184
tp943
a(I281
I294
I127
I230
I309
I729
I300
I220
tp944
a(I260
I290
I127
I271
I357
I671
I254
I211
tp945
a(I259
I322
I134
I261
I371
I722
I246
I218
tp946
a(I254
I312
I127
I259
I367
I708
I247
I223
tp947
a(I247
I301
I120
I270
I440
I679
I233
I217
tp948
a(I211
I396
I111
I262
I472
I689
I215
I157
tp949
a(I215
I422
I109
I227
I427
I714
I232
I155
tp950
a(I214
I414
I89
I223
I404
I674
I236
I145
tp951
a(I209
I432
I92
I225
I410
I709
I227
I144
tp952
a(I197
I426
I94
I235
I386
I757
I272
I152
tp953
a(I162
I338
I104
I277
I407
I728
I271
I141
tp954
a(I149
I298
I95
I264
I423
I697
I276
I143
tp955
a(I123
I348
I96
I256
I411
I690
I266
I123
tp956
a(I141
I394
I94
I252
I404
I671
I279
I110
tp957
a(I147
I436
I107
I232
I366
I578
I262
I103
tp958
a(I153
I456
I100
I161
I301
I607
I274
I101
tp959
a(I172
I490
I105
I146
I266
I634
I269
I130
tp960
a(I165
I461
I105
I162
I299
I590
I273
I132
tp961
a(I169
I412
I108
I185
I335
I550
I285
I140
tp962
a(I187
I428
I99
I177
I325
I583
I267
I147
tp963
a(I224
I420
I93
I190
I324
I623
I247
I162
tp964
a(I212
I372
I93
I210
I343
I697
I226
I142
tp965
a(I217
I369
I98
I222
I306
I759
I221
I158
tp966
a(I209
I368
I93
I202
I273
I783
I198
I160
tp967
a(I206
I387
I112
I215
I270
I798
I205
I149
tp968
a(I183
I386
I113
I196
I251
I780
I200
I138
tp969
a(I194
I379
I112
I176
I252
I718
I204
I138
tp970
a(I248
I383
I115
I142
I252
I664
I214
I134
tp971
a(I267
I374
I116
I168
I305
I627
I202
I132
tp972
a(I263
I254
I99
I163
I317
I629
I190
I138
tp973
a(I256
I236
I100
I183
I339
I619
I210
I135
tp974
a(I253
I253
I100
I190
I333
I666
I210
I135
tp975
a(I200
I274
I100
I232
I394
I660
I224
I113
tp976
a(I261
I339
I99
I235
I388
I663
I236
I176
tp977
a(I265
I383
I94
I244
I404
I734
I225
I194
tp978
a(I263
I376
I90
I230
I396
I776
I248
I198
tp979
a(I270
I456
I94
I235
I418
I767
I250
I201
tp980
a(I307
I576
I103
I203
I392
I831
I276
I207
tp981
a(I262
I567
I147
I214
I427
I1020
I363
I184
tp982
a(I249
I565
I147
I191
I401
I1004
I398
I165
tp983
a(I246
I576
I155
I202
I410
I982
I394
I165
tp984
a(I267
I579
I153
I187
I382
I958
I392
I164
tp985
a(I323
I482
I157
I198
I400
I962
I385
I228
tp986
a(I301
I447
I117
I250
I420
I788
I301
I202
tp987
a(I299
I418
I124
I263
I432
I719
I254
I200
tp988
a(I323
I422
I123
I263
I414
I655
I260
I205
tp989
a(I334
I373
I115
I271
I415
I667
I263
I220
tp990
a(I231
I321
I111
I275
I392
I628
I231
I159
tp991
a(I233
I338
I164
I357
I476
I698
I258
I155
tp992
a(I245
I344
I169
I364
I484
I736
I277
I156
tp993
a(I214
I358
I165
I367
I493
I818
I243
I160
tp994
a(I159
I331
I171
I372
I506
I779
I235
I135
tp995
a(I176
I337
I160
I369
I529
I826
I267
I136
tp996
a(I181
I364
I115
I233
I377
I770
I259
I148
tp997
a(I183
I351
I99
I220
I378
I830
I275
I154
tp998
a(I231
I323
I93
I213
I402
I756
I277
I152
tp999
a(I234
I342
I99
I197
I373
I777
I296
I158
tp1000
a(I222
I312
I100
I191
I342
I711
I286
I148
tp1001
a(I217
I273
I90
I213
I400
I748
I275
I135
tp1002
a(I208
I371
I93
I205
I393
I670
I253
I127
tp1003
a(I153
I453
I109
I222
I402
I690
I249
I108
tp1004
a(I149
I428
I98
I218
I401
I715
I243
I107
tp1005
a(I169
I483
I113
I253
I443
I786
I213
I118
tp1006
a(I159
I481
I111
I235
I389
I702
I210
I129
tp1007
a(I147
I421
I111
I238
I394
I680
I192
I126
tp1008
a(I137
I334
I110
I262
I397
I659
I187
I122
tp1009
a(I143
I384
I110
I280
I423
I666
I203
I111
tp1010
a(I129
I331
I92
I256
I372
I591
I240
I100
tp1011
a(I165
I396
I124
I257
I380
I581
I244
I104
tp1012
a(I170
I402
I121
I249
I356
I522
I243
I114
tp1013
a(I186
I394
I111
I215
I316
I580
I302
I150
tp1014
a(I180
I381
I110
I209
I319
I522
I291
I156
tp1015
a(I191
I425
I118
I197
I324
I490
I261
I157
tp1016
a(I192
I379
I90
I187
I346
I578
I260
I148
tp1017
a(I201
I437
I105
I187
I350
I633
I273
I142
tp1018
a(I190
I454
I119
I177
I351
I616
I236
I106
tp1019
a(I207
I431
I118
I159
I332
I640
I232
I107
tp1020
a(I212
I528
I111
I191
I336
I694
I264
I101
tp1021
a(I192
I536
I112
I194
I328
I863
I302
I125
tp1022
a(I178
I479
I104
I199
I358
I896
I352
I127
tp1023
a(I177
I470
I92
I211
I376
I884
I342
I129
tp1024
a(I160
I473
I101
I233
I430
I899
I403
I135
tp1025
a(I143
I321
I124
I325
I538
I896
I399
I144
tp1026
a(I151
I309
I120
I373
I610
I743
I384
I127
tp1027
a(I198
I378
I114
I370
I595
I819
I363
I136
tp1028
a(I237
I416
I112
I364
I582
I820
I356
I160
tp1029
a(I286
I424
I107
I361
I582
I780
I320
I186
tp1030
a(I287
I463
I78
I271
I471
I809
I304
I179
tp1031
a(I283
I450
I79
I206
I387
I871
I297
I181
tp1032
a(I252
I418
I87
I217
I420
I754
I254
I174
tp1033
a(I212
I370
I87
I238
I401
I774
I250
I147
tp1034
a(I153
I334
I82
I217
I324
I783
I228
I101
tp1035
a(I149
I297
I88
I205
I341
I696
I221
I101
tp1036
a(I159
I292
I86
I223
I354
I562
I199
I104
tp1037
a(I164
I248
I82
I224
I317
I631
I236
I105
tp1038
a(I167
I321
I94
I239
I388
I606
I266
I107
tp1039
a(I189
I331
I98
I260
I437
I646
I278
I128
tp1040
a(I188
I299
I99
I275
I464
I675
I290
I136
tp1041
a(I178
I318
I101
I278
I474
I707
I289
I133
tp1042
a(I183
I333
I97
I280
I482
I630
I290
I128
tp1043
a(I190
I322
I80
I245
I446
I656
I267
I126
tp1044
a(I170
I344
I74
I235
I420
I660
I256
I126
tp1045
a(I213
I330
I72
I218
I395
I633
I239
I148
tp1046
a(I218
I330
I69
I181
I333
I644
I267
I174
tp1047
a(I215
I339
I75
I228
I361
I620
I231
I173
tp1048
a(I215
I284
I78
I226
I341
I587
I225
I181
tp1049
a(I210
I275
I96
I245
I358
I509
I197
I180
tp1050
a(I163
I329
I125
I289
I428
I520
I238
I155
tp1051
a(I188
I351
I130
I308
I453
I474
I220
I137
tp1052
a(I192
I342
I141
I331
I467
I578
I241
I155
tp1053
a(I190
I353
I141
I339
I500
I626
I295
I159
tp1054
a(I185
I333
I130
I326
I471
I653
I288
I145
tp1055
a(I204
I347
I109
I307
I450
I680
I274
I149
tp1056
a(I206
I353
I115
I316
I482
I675
I255
I147
tp1057
a(I221
I364
I103
I292
I520
I673
I246
I139
tp1058
a(I224
I357
I101
I287
I517
I617
I235
I126
tp1059
a(I216
I366
I100
I291
I538
I587
I231
I127
tp1060
a(I197
I314
I104
I275
I500
I653
I280
I119
tp1061
a(I163
I274
I115
I317
I566
I713
I298
I111
tp1062
a(I129
I265
I114
I291
I537
I656
I305
I101
tp1063
a(I141
I264
I115
I286
I507
I640
I271
I126
tp1064
a(I171
I259
I120
I281
I499
I652
I278
I142
tp1065
a(I172
I260
I112
I271
I492
I633
I251
I146
tp1066
a(I175
I253
I89
I186
I352
I656
I262
I142
tp1067
a(I180
I221
I83
I166
I289
I656
I254
I142
tp1068
a(I195
I265
I102
I270
I452
I742
I266
I141
tp1069
a(I179
I276
I110
I275
I449
I768
I260
I129
tp1070
a(I182
I268
I104
I276
I447
I716
I232
I148
tp1071
a(I182
I298
I105
I297
I504
I719
I233
I146
tp1072
a(I180
I316
I118
I306
I511
I724
I257
I148
tp1073
a(I186
I279
I113
I247
I396
I655
I289
I143
tp1074
a(I203
I312
I99
I233
I384
I603
I286
I148
tp1075
a(I193
I320
I100
I249
I398
I631
I278
I123
tp1076
a(I186
I291
I106
I233
I317
I564
I261
I122
tp1077
a(I190
I285
I98
I229
I311
I598
I226
I123
tp1078
a(I164
I321
I91
I201
I297
I571
I169
I109
tp1079
a(I189
I303
I99
I219
I300
I561
I184
I129
tp1080
a(I197
I289
I102
I212
I271
I523
I182
I130
tp1081
a(I215
I291
I93
I210
I302
I582
I180
I139
tp1082
a(I228
I301
I104
I199
I282
I553
I190
I139
tp1083
a(I216
I272
I99
I202
I296
I626
I202
I142
tp1084
a(I173
I266
I91
I180
I294
I631
I191
I115
tp1085
a(I192
I275
I86
I182
I316
I671
I228
I131
tp1086
a(I185
I291
I81
I156
I281
I662
I219
I129
tp1087
a(I163
I293
I86
I169
I284
I664
I232
I131
tp1088
a(I166
I276
I114
I210
I352
I620
I208
I130
tp1089
a(I168
I247
I126
I238
I381
I632
I208
I124
tp1090
a(I147
I239
I127
I238
I378
I587
I163
I109
tp1091
a(I147
I243
I128
I246
I377
I510
I177
I120
tp1092
a(I171
I233
I118
I243
I393
I522
I198
I126
tp1093
asS'backward-right'
p1094
(lp1095
(I155
I246
I89
I232
I389
I512
I265
I186
tp1096
a(I163
I231
I91
I225
I338
I552
I278
I201
tp1097
a(I185
I190
I89
I227
I310
I487
I266
I193
tp1098
a(I175
I201
I90
I201
I334
I459
I271
I196
tp1099
a(I173
I250
I95
I247
I396
I499
I260
I179
tp1100
a(I193
I234
I100
I295
I481
I525
I256
I200
tp1101
a(I193
I231
I95
I293
I473
I538
I241
I187
tp1102
a(I209
I275
I104
I314
I520
I538
I271
I225
tp1103
a(I231
I262
I99
I299
I476
I572
I327
I244
tp1104
a(I227
I218
I99
I262
I433
I616
I316
I244
tp1105
a(I214
I229
I97
I268
I404
I616
I311
I229
tp1106
a(I253
I258
I99
I278
I444
I645
I313
I267
tp1107
a(I242
I215
I88
I266
I410
I663
I335
I258
tp1108
a(I210
I211
I94
I278
I431
I718
I289
I229
tp1109
a(I220
I236
I98
I273
I428
I674
I286
I250
tp1110
a(I217
I227
I93
I217
I384
I656
I279
I241
tp1111
a(I186
I208
I89
I193
I343
I624
I266
I203
tp1112
a(I212
I216
I102
I212
I409
I637
I220
I194
tp1113
a(I237
I227
I100
I192
I380
I583
I204
I201
tp1114
a(I237
I195
I91
I213
I399
I591
I222
I181
tp1115
a(I241
I190
I93
I221
I407
I557
I223
I186
tp1116
a(I221
I183
I92
I216
I402
I599
I240
I180
tp1117
a(I178
I233
I92
I175
I338
I554
I234
I160
tp1118
a(I179
I223
I97
I207
I391
I578
I234
I178
tp1119
a(I194
I227
I96
I201
I403
I545
I210
I173
tp1120
a(I191
I234
I93
I188
I389
I563
I231
I164
tp1121
a(I217
I286
I99
I214
I401
I466
I231
I163
tp1122
a(I219
I247
I88
I214
I383
I513
I229
I170
tp1123
a(I202
I262
I109
I283
I424
I503
I260
I163
tp1124
a(I180
I266
I120
I287
I406
I522
I266
I164
tp1125
a(I186
I286
I124
I297
I423
I539
I265
I160
tp1126
a(I184
I226
I121
I281
I438
I625
I271
I172
tp1127
a(I205
I214
I127
I296
I451
I591
I259
I163
tp1128
a(I210
I219
I104
I211
I384
I594
I231
I160
tp1129
a(I224
I217
I98
I247
I450
I695
I229
I169
tp1130
a(I223
I189
I98
I237
I454
I758
I243
I172
tp1131
a(I212
I194
I97
I252
I470
I696
I226
I159
tp1132
a(I207
I214
I91
I230
I476
I745
I243
I166
tp1133
a(I189
I186
I89
I255
I505
I795
I341
I150
tp1134
a(I242
I200
I80
I224
I489
I774
I398
I190
tp1135
a(I245
I240
I89
I259
I505
I756
I390
I187
tp1136
a(I238
I239
I89
I246
I482
I781
I431
I200
tp1137
a(I224
I231
I90
I273
I502
I786
I429
I196
tp1138
a(I241
I236
I93
I254
I529
I733
I360
I202
tp1139
a(I204
I227
I97
I235
I494
I739
I303
I199
tp1140
a(I198
I185
I91
I194
I455
I731
I331
I207
tp1141
a(I191
I209
I117
I238
I458
I807
I279
I199
tp1142
a(I202
I207
I120
I241
I419
I744
I289
I199
tp1143
a(I186
I226
I122
I249
I337
I750
I306
I193
tp1144
a(I172
I213
I116
I247
I334
I682
I304
I155
tp1145
a(I179
I207
I115
I287
I410
I677
I280
I136
tp1146
a(I180
I212
I102
I264
I403
I563
I283
I124
tp1147
a(I216
I219
I95
I235
I439
I632
I283
I206
tp1148
a(I224
I192
I92
I222
I457
I642
I263
I232
tp1149
a(I221
I204
I99
I229
I444
I638
I252
I231
tp1150
a(I225
I217
I114
I210
I437
I580
I230
I248
tp1151
a(I223
I198
I115
I194
I446
I631
I253
I253
tp1152
a(I222
I182
I116
I196
I439
I614
I241
I264
tp1153
a(I218
I205
I125
I229
I451
I574
I241
I257
tp1154
a(I272
I192
I122
I228
I447
I587
I241
I271
tp1155
a(I281
I175
I102
I219
I431
I633
I232
I265
tp1156
a(I293
I163
I89
I246
I414
I581
I241
I263
tp1157
a(I278
I160
I95
I259
I368
I571
I252
I214
tp1158
a(I293
I128
I80
I236
I346
I603
I273
I201
tp1159
a(I248
I162
I90
I244
I359
I635
I263
I185
tp1160
a(I223
I249
I101
I223
I310
I628
I294
I193
tp1161
a(I293
I245
I107
I198
I303
I681
I279
I227
tp1162
a(I297
I246
I110
I193
I381
I703
I271
I260
tp1163
a(I283
I288
I119
I186
I364
I724
I237
I261
tp1164
a(I264
I285
I110
I173
I344
I686
I249
I252
tp1165
a(I271
I219
I105
I186
I366
I707
I266
I238
tp1166
a(I181
I235
I109
I232
I419
I635
I257
I216
tp1167
a(I178
I233
I125
I299
I413
I608
I266
I174
tp1168
a(I192
I181
I126
I303
I439
I581
I282
I184
tp1169
a(I217
I169
I131
I341
I486
I577
I295
I194
tp1170
a(I238
I170
I131
I335
I488
I553
I265
I226
tp1171
a(I243
I141
I130
I333
I482
I576
I252
I217
tp1172
a(I215
I156
I107
I264
I439
I676
I253
I192
tp1173
a(I207
I190
I101
I282
I442
I630
I243
I196
tp1174
a(I215
I193
I104
I257
I442
I629
I225
I218
tp1175
a(I236
I190
I112
I277
I448
I681
I242
I219
tp1176
a(I250
I201
I108
I250
I425
I689
I250
I250
tp1177
a(I256
I218
I113
I245
I424
I580
I230
I252
tp1178
a(I245
I191
I116
I258
I435
I631
I235
I242
tp1179
a(I220
I190
I117
I267
I449
I655
I266
I212
tp1180
a(I166
I204
I120
I251
I426
I558
I272
I190
tp1181
a(I137
I200
I117
I273
I440
I605
I258
I143
tp1182
a(I220
I173
I119
I303
I453
I612
I266
I159
tp1183
a(I232
I200
I134
I350
I508
I597
I256
I160
tp1184
a(I235
I205
I135
I342
I455
I583
I238
I171
tp1185
a(I250
I189
I124
I335
I436
I651
I222
I161
tp1186
a(I253
I194
I131
I352
I462
I650
I232
I162
tp1187
a(I192
I191
I126
I347
I492
I650
I225
I161
tp1188
a(I191
I159
I105
I293
I430
I613
I231
I149
tp1189
a(I196
I150
I97
I282
I452
I666
I271
I146
tp1190
a(I176
I219
I99
I286
I458
I596
I272
I139
tp1191
a(I180
I245
I93
I245
I414
I646
I270
I145
tp1192
a(I243
I251
I111
I242
I390
I636
I264
I186
tp1193
a(I236
I279
I114
I222
I364
I697
I282
I192
tp1194
a(I244
I274
I112
I247
I387
I804
I236
I216
tp1195
a(I249
I234
I111
I242
I395
I853
I211
I226
tp1196
a(I240
I214
I112
I241
I395
I768
I197
I222
tp1197
a(I197
I224
I102
I229
I374
I787
I266
I201
tp1198
a(I202
I197
I104
I248
I402
I749
I241
I198
tp1199
a(I199
I207
I104
I214
I347
I571
I242
I175
tp1200
a(I199
I218
I111
I238
I403
I658
I274
I170
tp1201
a(I203
I204
I122
I259
I415
I671
I315
I164
tp1202
a(I187
I204
I122
I261
I421
I628
I277
I127
tp1203
a(I242
I192
I115
I239
I418
I673
I292
I192
tp1204
a(I232
I182
I119
I254
I448
I690
I285
I193
tp1205
a(I232
I147
I122
I285
I412
I540
I276
I200
tp1206
a(I245
I181
I112
I283
I413
I553
I237
I200
tp1207
a(I233
I164
I106
I273
I388
I639
I234
I204
tp1208
a(I303
I193
I166
I363
I420
I631
I232
I235
tp1209
a(I339
I190
I172
I370
I409
I645
I237
I254
tp1210
a(I360
I221
I163
I332
I406
I660
I253
I284
tp1211
a(I366
I203
I163
I310
I397
I658
I275
I308
tp1212
a(I375
I207
I164
I322
I406
I590
I263
I308
tp1213
a(I316
I199
I107
I212
I364
I588
I248
I262
tp1214
a(I277
I240
I95
I176
I359
I593
I260
I236
tp1215
a(I250
I224
I95
I193
I338
I632
I258
I188
tp1216
a(I284
I229
I99
I221
I310
I618
I240
I218
tp1217
a(I278
I227
I92
I196
I298
I638
I265
I226
tp1218
a(I250
I241
I106
I229
I349
I664
I280
I209
tp1219
a(I247
I224
I108
I232
I329
I659
I270
I218
tp1220
a(I235
I217
I107
I229
I369
I615
I259
I216
tp1221
a(I163
I211
I103
I237
I412
I636
I261
I147
tp1222
a(I156
I234
I111
I253
I433
I626
I231
I125
tp1223
a(I169
I202
I89
I234
I390
I634
I217
I190
tp1224
a(I183
I168
I90
I265
I439
I627
I228
I206
tp1225
a(I210
I173
I90
I269
I436
I607
I211
I217
tp1226
a(I224
I170
I89
I281
I450
I612
I240
I236
tp1227
a(I225
I143
I87
I296
I481
I622
I262
I246
tp1228
a(I238
I172
I88
I279
I472
I535
I285
I216
tp1229
a(I234
I190
I96
I286
I463
I645
I273
I194
tp1230
a(I227
I208
I102
I293
I452
I709
I298
I188
tp1231
a(I282
I207
I103
I269
I431
I704
I277
I216
tp1232
a(I284
I200
I96
I236
I378
I657
I282
I212
tp1233
a(I255
I195
I103
I242
I382
I681
I286
I193
tp1234
a(I262
I198
I85
I193
I347
I620
I341
I187
tp1235
a(I270
I207
I81
I178
I337
I634
I323
I193
tp1236
a(I216
I339
I81
I172
I316
I655
I391
I149
tp1237
a(I269
I345
I84
I177
I301
I669
I398
I148
tp1238
a(I331
I374
I85
I172
I282
I746
I410
I146
tp1239
a(I323
I371
I91
I177
I293
I691
I378
I159
tp1240
a(I315
I389
I94
I163
I312
I643
I383
I161
tp1241
a(I325
I294
I91
I158
I348
I597
I305
I169
tp1242
a(I289
I292
I97
I173
I367
I631
I296
I176
tp1243
a(I230
I258
I97
I170
I383
I512
I244
I196
tp1244
a(I275
I255
I96
I174
I362
I567
I242
I221
tp1245
a(I314
I219
I94
I200
I386
I626
I229
I224
tp1246
a(I328
I226
I94
I199
I369
I610
I244
I224
tp1247
a(I342
I236
I90
I191
I375
I609
I223
I227
tp1248
a(I339
I238
I82
I193
I359
I679
I246
I221
tp1249
a(I306
I236
I82
I192
I360
I615
I230
I194
tp1250
a(I255
I214
I85
I184
I324
I587
I249
I179
tp1251
asS'left'
p1252
(lp1253
(I515
I173
I34
I46
I87
I188
I186
I53
tp1254
a(I455
I156
I32
I43
I89
I205
I204
I52
tp1255
a(I434
I148
I30
I43
I83
I195
I192
I49
tp1256
a(I426
I151
I32
I46
I83
I199
I187
I46
tp1257
a(I442
I160
I34
I45
I84
I288
I144
I51
tp1258
a(I377
I163
I39
I44
I75
I283
I144
I52
tp1259
a(I403
I177
I44
I43
I74
I278
I107
I52
tp1260
a(I408
I176
I45
I42
I74
I279
I104
I52
tp1261
a(I434
I174
I42
I40
I73
I268
I101
I52
tp1262
a(I398
I163
I46
I64
I74
I229
I169
I52
tp1263
a(I517
I203
I43
I70
I71
I253
I201
I59
tp1264
a(I509
I197
I38
I72
I75
I249
I203
I60
tp1265
a(I564
I211
I40
I75
I84
I265
I215
I66
tp1266
a(I586
I224
I42
I80
I82
I266
I219
I70
tp1267
a(I588
I227
I37
I63
I75
I223
I177
I63
tp1268
a(I528
I189
I42
I59
I86
I206
I189
I57
tp1269
a(I564
I195
I42
I61
I87
I247
I191
I53
tp1270
a(I524
I185
I43
I79
I84
I239
I180
I46
tp1271
a(I499
I172
I43
I74
I83
I241
I182
I41
tp1272
a(I450
I147
I41
I72
I87
I255
I190
I47
tp1273
a(I512
I168
I40
I70
I77
I248
I161
I48
tp1274
a(I472
I157
I39
I68
I73
I201
I151
I50
tp1275
a(I449
I154
I37
I54
I69
I189
I164
I51
tp1276
a(I450
I163
I38
I55
I70
I184
I157
I48
tp1277
a(I547
I215
I36
I63
I65
I150
I159
I45
tp1278
a(I505
I206
I33
I64
I66
I162
I165
I41
tp1279
a(I499
I205
I37
I64
I67
I163
I168
I43
tp1280
a(I545
I213
I35
I56
I65
I162
I154
I44
tp1281
a(I556
I218
I37
I57
I64
I165
I157
I47
tp1282
a(I512
I175
I40
I48
I67
I159
I142
I51
tp1283
a(I470
I152
I42
I58
I63
I149
I125
I55
tp1284
a(I498
I167
I40
I63
I65
I139
I119
I53
tp1285
a(I459
I152
I45
I67
I69
I193
I168
I52
tp1286
a(I518
I167
I46
I70
I79
I213
I168
I54
tp1287
a(I496
I164
I45
I73
I71
I204
I166
I51
tp1288
a(I498
I164
I42
I64
I69
I197
I147
I48
tp1289
a(I468
I141
I42
I61
I69
I199
I159
I45
tp1290
a(I485
I156
I37
I58
I67
I223
I127
I51
tp1291
a(I399
I135
I32
I49
I52
I202
I125
I49
tp1292
a(I439
I151
I30
I45
I55
I222
I145
I47
tp1293
a(I450
I157
I30
I45
I59
I233
I164
I53
tp1294
a(I453
I170
I36
I49
I63
I278
I172
I59
tp1295
a(I444
I165
I43
I50
I63
I257
I180
I57
tp1296
a(I440
I158
I43
I50
I65
I266
I195
I58
tp1297
a(I415
I155
I44
I49
I64
I248
I186
I57
tp1298
a(I416
I146
I45
I52
I63
I253
I174
I53
tp1299
a(I405
I139
I43
I48
I59
I216
I166
I48
tp1300
a(I391
I149
I36
I49
I58
I193
I153
I47
tp1301
a(I386
I144
I40
I50
I59
I190
I162
I46
tp1302
a(I362
I126
I44
I55
I65
I197
I172
I54
tp1303
a(I333
I137
I43
I51
I64
I178
I171
I52
tp1304
a(I347
I138
I46
I49
I66
I176
I172
I51
tp1305
a(I427
I148
I45
I46
I65
I154
I165
I50
tp1306
a(I447
I149
I45
I60
I76
I205
I137
I50
tp1307
a(I415
I151
I40
I61
I76
I201
I116
I41
tp1308
a(I396
I143
I39
I60
I74
I229
I149
I42
tp1309
a(I380
I134
I37
I58
I69
I219
I143
I39
tp1310
a(I359
I138
I36
I58
I77
I220
I139
I34
tp1311
a(I310
I131
I34
I43
I76
I198
I147
I31
tp1312
a(I319
I133
I32
I35
I73
I195
I147
I34
tp1313
a(I386
I150
I31
I38
I79
I164
I109
I41
tp1314
a(I445
I182
I28
I35
I83
I166
I117
I47
tp1315
a(I378
I157
I37
I37
I80
I174
I136
I49
tp1316
a(I404
I172
I36
I36
I71
I133
I127
I51
tp1317
a(I414
I170
I39
I36
I77
I182
I151
I54
tp1318
a(I472
I200
I40
I34
I71
I185
I172
I48
tp1319
a(I464
I195
I44
I38
I70
I181
I169
I46
tp1320
a(I492
I210
I36
I39
I64
I179
I149
I50
tp1321
a(I568
I239
I37
I41
I62
I192
I164
I47
tp1322
a(I600
I255
I34
I40
I54
I151
I150
I45
tp1323
a(I514
I222
I34
I39
I57
I161
I132
I45
tp1324
a(I466
I199
I29
I41
I51
I195
I140
I41
tp1325
a(I516
I235
I30
I41
I58
I187
I143
I38
tp1326
a(I460
I209
I32
I39
I60
I175
I127
I42
tp1327
a(I400
I188
I35
I43
I62
I166
I125
I37
tp1328
a(I469
I219
I35
I47
I65
I145
I117
I38
tp1329
a(I478
I231
I35
I44
I63
I97
I93
I38
tp1330
a(I400
I188
I37
I42
I68
I213
I163
I39
tp1331
a(I371
I176
I33
I42
I66
I212
I167
I34
tp1332
a(I390
I188
I30
I41
I64
I225
I170
I41
tp1333
a(I379
I180
I29
I39
I62
I225
I171
I42
tp1334
a(I390
I181
I30
I39
I62
I228
I177
I42
tp1335
a(I395
I174
I29
I42
I51
I183
I140
I46
tp1336
a(I405
I173
I34
I48
I54
I199
I145
I48
tp1337
a(I434
I168
I43
I50
I70
I193
I166
I46
tp1338
a(I411
I142
I44
I56
I72
I194
I167
I44
tp1339
a(I402
I126
I45
I56
I71
I188
I181
I46
tp1340
a(I407
I127
I44
I52
I71
I140
I171
I43
tp1341
a(I387
I139
I43
I46
I70
I131
I169
I44
tp1342
a(I433
I141
I36
I44
I57
I121
I154
I48
tp1343
a(I428
I142
I36
I34
I51
I197
I168
I51
tp1344
a(I421
I147
I34
I32
I56
I206
I151
I50
tp1345
a(I430
I157
I43
I41
I59
I237
I218
I51
tp1346
a(I430
I150
I47
I44
I58
I250
I215
I51
tp1347
a(I355
I148
I45
I55
I57
I286
I222
I46
tp1348
a(I365
I145
I43
I59
I61
I238
I213
I43
tp1349
a(I452
I187
I44
I62
I64
I249
I219
I49
tp1350
a(I436
I181
I38
I61
I62
I231
I153
I46
tp1351
a(I434
I176
I34
I60
I66
I213
I157
I42
tp1352
a(I538
I207
I35
I53
I68
I188
I151
I45
tp1353
a(I503
I206
I34
I55
I73
I239
I167
I44
tp1354
a(I424
I165
I32
I54
I74
I227
I160
I44
tp1355
a(I435
I168
I32
I50
I81
I237
I155
I48
tp1356
a(I434
I169
I29
I50
I78
I234
I151
I52
tp1357
a(I338
I123
I31
I46
I76
I213
I128
I50
tp1358
a(I423
I131
I37
I38
I75
I150
I100
I54
tp1359
a(I459
I134
I38
I42
I70
I203
I122
I54
tp1360
a(I494
I145
I36
I45
I66
I182
I126
I50
tp1361
a(I486
I147
I36
I44
I65
I186
I118
I48
tp1362
a(I459
I139
I36
I46
I66
I191
I121
I46
tp1363
a(I459
I154
I33
I45
I62
I195
I129
I51
tp1364
a(I497
I154
I36
I38
I60
I170
I107
I49
tp1365
a(I474
I137
I39
I39
I56
I173
I100
I51
tp1366
a(I540
I157
I43
I48
I59
I192
I119
I55
tp1367
a(I540
I161
I45
I47
I60
I186
I132
I58
tp1368
a(I531
I157
I45
I51
I67
I191
I139
I49
tp1369
a(I560
I176
I43
I54
I69
I165
I134
I47
tp1370
a(I552
I179
I40
I49
I71
I155
I146
I56
tp1371
a(I487
I170
I37
I41
I66
I168
I139
I54
tp1372
a(I479
I164
I36
I43
I65
I189
I154
I55
tp1373
a(I420
I145
I33
I50
I56
I182
I143
I60
tp1374
a(I314
I144
I32
I49
I55
I175
I150
I64
tp1375
a(I288
I136
I39
I50
I49
I242
I194
I60
tp1376
a(I315
I124
I39
I52
I55
I221
I194
I59
tp1377
a(I317
I140
I36
I50
I52
I224
I178
I55
tp1378
a(I338
I151
I37
I41
I55
I227
I177
I49
tp1379
a(I331
I124
I38
I44
I50
I245
I225
I45
tp1380
a(I348
I139
I31
I45
I51
I212
I182
I37
tp1381
a(I459
I165
I31
I42
I47
I220
I190
I42
tp1382
a(I508
I197
I32
I42
I53
I197
I189
I47
tp1383
a(I502
I188
I34
I42
I51
I225
I191
I47
tp1384
a(I602
I217
I38
I42
I55
I208
I126
I52
tp1385
a(I596
I215
I37
I39
I63
I174
I133
I52
tp1386
a(I498
I195
I37
I43
I64
I209
I155
I50
tp1387
a(I501
I164
I39
I51
I62
I213
I163
I47
tp1388
a(I539
I199
I39
I51
I63
I186
I160
I49
tp1389
a(I422
I167
I36
I45
I60
I195
I168
I42
tp1390
a(I450
I161
I40
I46
I52
I207
I170
I47
tp1391
a(I487
I173
I41
I50
I58
I161
I151
I50
tp1392
a(I424
I169
I39
I40
I58
I159
I156
I48
tp1393
a(I507
I167
I39
I41
I55
I171
I169
I48
tp1394
a(I565
I180
I45
I41
I56
I154
I157
I48
tp1395
a(I574
I208
I43
I42
I61
I156
I153
I45
tp1396
a(I562
I197
I39
I34
I52
I147
I162
I41
tp1397
a(I568
I191
I39
I34
I51
I143
I144
I43
tp1398
a(I455
I161
I39
I33
I52
I126
I129
I41
tp1399
a(I428
I144
I29
I35
I50
I128
I132
I45
tp1400
a(I457
I115
I31
I35
I48
I112
I128
I47
tp1401
a(I517
I149
I36
I37
I56
I177
I145
I59
tp1402
a(I536
I158
I34
I39
I57
I204
I149
I60
tp1403
a(I542
I170
I34
I49
I59
I201
I155
I61
tp1404
a(I519
I179
I33
I46
I57
I201
I171
I57
tp1405
a(I537
I190
I32
I49
I54
I194
I187
I56
tp1406
a(I477
I177
I29
I47
I49
I140
I156
I44
tp1407
as.