(dp0
S'right'
p1
(lp2
(I49
I92
I199
I582
I581
I392
I138
I60
tp3
a(I48
I89
I193
I565
I509
I383
I135
I57
tp4
a(I45
I87
I194
I520
I566
I419
I134
I55
tp5
a(I50
I92
I204
I592
I543
I419
I141
I66
tp6
a(I49
I90
I211
I656
I587
I437
I145
I65
tp7
a(I50
I91
I214
I690
I579
I435
I144
I65
tp8
a(I46
I82
I183
I629
I590
I413
I142
I64
tp9
a(I45
I81
I178
I647
I592
I371
I145
I62
tp10
a(I40
I78
I170
I623
I652
I456
I145
I57
tp11
a(I41
I78
I163
I578
I577
I405
I120
I54
tp12
a(I45
I88
I189
I674
I640
I365
I136
I53
tp13
a(I49
I92
I205
I757
I636
I380
I150
I54
tp14
a(I50
I94
I202
I725
I589
I408
I153
I54
tp15
a(I49
I92
I200
I713
I531
I305
I148
I49
tp16
a(I48
I92
I214
I780
I590
I321
I155
I51
tp17
a(I49
I92
I201
I782
I609
I464
I145
I57
tp18
a(I51
I93
I205
I836
I648
I518
I151
I59
tp19
a(I56
I100
I230
I924
I739
I584
I167
I65
tp20
a(I60
I102
I234
I914
I730
I663
I188
I67
tp21
a(I61
I100
I217
I874
I707
I676
I191
I64
tp22
a(I59
I96
I210
I828
I694
I634
I193
I62
tp23
a(I56
I89
I194
I730
I690
I624
I187
I59
tp24
a(I56
I83
I171
I621
I583
I640
I182
I66
tp25
a(I55
I82
I175
I630
I577
I554
I160
I65
tp26
a(I56
I76
I162
I608
I574
I600
I151
I67
tp27
a(I57
I82
I185
I606
I554
I562
I146
I71
tp28
a(I62
I91
I185
I567
I518
I637
I141
I78
tp29
a(I58
I91
I189
I659
I602
I539
I124
I68
tp30
a(I58
I90
I178
I645
I646
I559
I140
I69
tp31
a(I62
I104
I198
I622
I620
I574
I166
I77
tp32
a(I66
I110
I212
I667
I618
I591
I178
I77
tp33
a(I65
I109
I222
I769
I744
I564
I174
I73
tp34
a(I64
I106
I212
I708
I678
I593
I172
I72
tp35
a(I62
I107
I216
I719
I634
I593
I154
I71
tp36
a(I58
I98
I203
I722
I628
I514
I137
I61
tp37
a(I51
I94
I190
I651
I586
I482
I139
I59
tp38
a(I46
I85
I169
I600
I433
I446
I140
I58
tp39
a(I51
I102
I214
I652
I529
I502
I164
I69
tp40
a(I51
I100
I208
I689
I556
I477
I164
I68
tp41
a(I54
I103
I209
I687
I578
I518
I158
I72
tp42
a(I56
I96
I187
I740
I688
I651
I145
I71
tp43
a(I62
I111
I226
I785
I756
I627
I149
I74
tp44
a(I62
I102
I212
I804
I724
I563
I139
I69
tp45
a(I61
I101
I209
I780
I734
I604
I144
I68
tp46
a(I54
I92
I196
I767
I711
I557
I150
I64
tp47
a(I54
I97
I209
I743
I689
I452
I151
I63
tp48
a(I51
I93
I210
I653
I589
I477
I152
I61
tp49
a(I60
I117
I253
I661
I652
I508
I160
I72
tp50
a(I65
I132
I301
I683
I690
I532
I182
I79
tp51
a(I67
I136
I313
I781
I758
I635
I180
I80
tp52
a(I68
I139
I319
I760
I702
I591
I187
I79
tp53
a(I63
I130
I294
I745
I717
I639
I196
I75
tp54
a(I60
I118
I263
I753
I703
I629
I195
I69
tp55
a(I58
I108
I216
I732
I646
I583
I181
I66
tp56
a(I58
I109
I219
I689
I595
I487
I184
I65
tp57
a(I55
I102
I201
I735
I620
I577
I182
I70
tp58
a(I57
I105
I213
I760
I591
I454
I179
I69
tp59
a(I51
I94
I194
I703
I554
I474
I170
I64
tp60
a(I50
I90
I189
I690
I550
I524
I168
I62
tp61
a(I54
I91
I188
I648
I555
I560
I167
I66
tp62
a(I56
I92
I188
I563
I532
I476
I161
I63
tp63
a(I55
I87
I180
I547
I540
I498
I154
I64
tp64
a(I52
I83
I184
I602
I502
I488
I148
I61
tp65
a(I55
I94
I205
I623
I553
I454
I152
I66
tp66
a(I51
I91
I195
I605
I544
I472
I151
I62
tp67
a(I45
I86
I191
I648
I558
I487
I145
I59
tp68
a(I44
I88
I190
I659
I601
I492
I151
I57
tp69
a(I41
I86
I178
I570
I603
I455
I152
I56
tp70
a(I49
I91
I175
I638
I616
I536
I201
I70
tp71
a(I53
I97
I182
I640
I593
I486
I199
I67
tp72
a(I55
I98
I186
I621
I570
I516
I214
I74
tp73
a(I58
I106
I198
I625
I527
I531
I209
I77
tp74
a(I62
I111
I201
I662
I612
I539
I211
I80
tp75
a(I55
I100
I184
I591
I568
I508
I163
I62
tp76
a(I50
I88
I168
I585
I603
I513
I180
I63
tp77
a(I47
I82
I150
I590
I585
I474
I163
I56
tp78
a(I43
I69
I133
I573
I577
I541
I162
I53
tp79
a(I39
I60
I126
I560
I464
I538
I157
I48
tp80
a(I32
I53
I115
I508
I398
I481
I157
I49
tp81
a(I31
I56
I122
I521
I335
I461
I141
I49
tp82
a(I35
I68
I144
I544
I375
I477
I138
I50
tp83
a(I45
I79
I169
I571
I423
I454
I148
I61
tp84
a(I45
I80
I180
I569
I455
I458
I147
I60
tp85
a(I48
I85
I191
I589
I483
I433
I136
I61
tp86
a(I49
I85
I194
I584
I505
I432
I131
I61
tp87
a(I53
I87
I196
I550
I467
I465
I144
I62
tp88
a(I44
I76
I170
I485
I399
I386
I124
I48
tp89
a(I49
I81
I162
I442
I410
I390
I120
I53
tp90
a(I58
I96
I200
I513
I462
I452
I128
I65
tp91
a(I61
I100
I206
I509
I455
I472
I136
I69
tp92
a(I56
I92
I193
I455
I461
I408
I114
I63
tp93
a(I72
I134
I262
I544
I544
I413
I150
I79
tp94
a(I70
I137
I269
I565
I513
I458
I159
I80
tp95
a(I61
I124
I234
I481
I448
I390
I151
I67
tp96
a(I58
I123
I233
I505
I454
I360
I145
I64
tp97
a(I62
I133
I257
I570
I483
I362
I150
I69
tp98
a(I43
I89
I182
I516
I415
I417
I122
I51
tp99
a(I43
I81
I168
I507
I449
I385
I119
I49
tp100
a(I44
I83
I171
I508
I436
I390
I123
I49
tp101
a(I43
I79
I160
I526
I416
I389
I127
I48
tp102
a(I37
I65
I126
I487
I381
I414
I124
I44
tp103
a(I41
I73
I149
I529
I368
I363
I116
I50
tp104
a(I47
I92
I201
I638
I463
I372
I132
I58
tp105
a(I52
I94
I211
I671
I519
I404
I130
I60
tp106
a(I52
I94
I211
I621
I512
I448
I115
I60
tp107
a(I52
I92
I206
I610
I518
I504
I147
I60
tp108
a(I50
I90
I197
I617
I508
I489
I152
I55
tp109
a(I45
I77
I181
I587
I440
I504
I135
I47
tp110
a(I41
I76
I178
I577
I384
I492
I131
I44
tp111
a(I38
I72
I172
I575
I367
I450
I136
I44
tp112
a(I42
I80
I185
I632
I403
I398
I102
I44
tp113
a(I43
I78
I183
I571
I446
I424
I97
I46
tp114
a(I40
I69
I151
I489
I450
I465
I98
I50
tp115
a(I39
I64
I140
I486
I459
I460
I95
I49
tp116
a(I39
I65
I138
I469
I464
I460
I92
I49
tp117
a(I37
I61
I125
I442
I460
I431
I86
I47
tp118
a(I33
I59
I123
I425
I435
I433
I89
I45
tp119
a(I28
I49
I99
I384
I387
I331
I84
I36
tp120
a(I34
I68
I137
I444
I386
I340
I94
I42
tp121
a(I39
I79
I169
I567
I469
I360
I99
I47
tp122
a(I36
I73
I165
I549
I443
I357
I102
I48
tp123
a(I38
I78
I169
I595
I493
I326
I111
I47
tp124
a(I41
I83
I180
I617
I503
I326
I108
I51
tp125
a(I40
I73
I158
I561
I514
I310
I122
I50
tp126
a(I38
I68
I140
I469
I479
I291
I118
I44
tp127
a(I37
I67
I136
I458
I485
I366
I118
I41
tp128
a(I39
I67
I138
I420
I463
I349
I108
I42
tp129
a(I40
I69
I143
I459
I492
I329
I121
I40
tp130
a(I39
I68
I139
I477
I488
I349
I101
I37
tp131
a(I36
I61
I127
I481
I454
I345
I96
I35
tp132
a(I37
I64
I128
I462
I476
I312
I91
I39
tp133
a(I38
I65
I135
I465
I443
I349
I104
I41
tp134
a(I32
I59
I118
I412
I381
I351
I86
I38
tp135
a(I34
I60
I123
I437
I402
I342
I92
I40
tp136
a(I34
I60
I119
I399
I421
I334
I93
I42
tp137
a(I36
I61
I138
I475
I446
I337
I105
I42
tp138
a(I33
I58
I132
I454
I440
I312
I100
I41
tp139
a(I33
I54
I126
I437
I434
I308
I99
I41
tp140
a(I48
I85
I184
I470
I441
I313
I121
I56
tp141
a(I51
I88
I191
I500
I426
I374
I124
I59
tp142
a(I55
I98
I203
I478
I336
I359
I126
I59
tp143
a(I55
I98
I205
I529
I367
I342
I126
I59
tp144
a(I55
I99
I208
I553
I437
I350
I125
I59
tp145
a(I42
I73
I158
I520
I448
I359
I109
I44
tp146
a(I40
I72
I155
I528
I462
I382
I129
I40
tp147
a(I34
I59
I130
I506
I500
I371
I122
I37
tp148
a(I36
I57
I115
I463
I492
I374
I115
I41
tp149
a(I39
I68
I137
I570
I548
I370
I115
I44
tp150
a(I37
I71
I137
I595
I539
I383
I111
I44
tp151
a(I38
I67
I128
I586
I541
I354
I94
I44
tp152
a(I38
I66
I125
I574
I516
I340
I90
I44
tp153
a(I40
I73
I145
I675
I597
I341
I121
I49
tp154
asS'relaxed'
p155
(lp156
(I19
I24
I32
I151
I148
I31
I16
I20
tp157
a(I19
I23
I27
I139
I144
I29
I16
I17
tp158
a(I17
I18
I30
I149
I151
I28
I15
I16
tp159
a(I17
I17
I30
I155
I149
I28
I17
I17
tp160
a(I17
I17
I30
I123
I109
I22
I18
I18
tp161
a(I19
I19
I31
I140
I113
I27
I20
I19
tp162
a(I22
I21
I32
I131
I110
I28
I22
I20
tp163
a(I23
I22
I31
I148
I106
I29
I22
I21
tp164
a(I23
I23
I31
I145
I112
I29
I22
I21
tp165
a(I23
I26
I36
I158
I123
I32
I22
I22
tp166
a(I22
I24
I37
I205
I159
I33
I21
I20
tp167
a(I20
I24
I39
I215
I167
I35
I20
I20
tp168
a(I18
I26
I44
I223
I195
I41
I20
I20
tp169
a(I17
I26
I45
I226
I195
I41
I18
I20
tp170
a(I18
I23
I40
I216
I185
I37
I17
I18
tp171
a(I17
I22
I36
I154
I144
I33
I18
I17
tp172
a(I15
I20
I32
I136
I132
I29
I16
I16
tp173
a(I14
I18
I21
I88
I76
I19
I15
I16
tp174
a(I16
I16
I22
I148
I158
I26
I19
I17
tp175
a(I16
I17
I24
I159
I173
I30
I20
I19
tp176
a(I18
I17
I26
I160
I176
I30
I19
I19
tp177
a(I18
I17
I25
I164
I182
I30
I19
I18
tp178
a(I18
I17
I26
I185
I198
I33
I20
I18
tp179
a(I17
I18
I25
I132
I134
I27
I19
I17
tp180
a(I20
I18
I25
I115
I108
I23
I18
I16
tp181
a(I18
I18
I24
I113
I106
I24
I18
I17
tp182
a(I19
I18
I26
I114
I95
I24
I18
I17
tp183
a(I19
I20
I28
I88
I83
I22
I16
I19
tp184
a(I19
I21
I28
I115
I96
I21
I16
I18
tp185
a(I15
I22
I27
I120
I98
I22
I16
I17
tp186
a(I17
I20
I27
I129
I99
I21
I15
I18
tp187
a(I18
I22
I33
I158
I138
I36
I17
I19
tp188
a(I19
I20
I34
I171
I144
I36
I20
I18
tp189
a(I19
I19
I33
I155
I138
I37
I19
I19
tp190
a(I19
I17
I33
I153
I138
I36
I18
I18
tp191
a(I17
I18
I33
I149
I140
I38
I21
I18
tp192
a(I15
I18
I25
I122
I120
I26
I21
I17
tp193
a(I14
I17
I21
I87
I99
I26
I19
I17
tp194
a(I14
I17
I23
I123
I102
I25
I20
I17
tp195
a(I15
I20
I25
I133
I108
I26
I20
I17
tp196
a(I15
I20
I25
I130
I104
I23
I19
I15
tp197
a(I15
I20
I26
I139
I108
I25
I20
I16
tp198
a(I17
I20
I26
I146
I112
I27
I19
I16
tp199
a(I18
I19
I24
I112
I105
I27
I20
I17
tp200
a(I18
I20
I25
I114
I106
I29
I20
I17
tp201
a(I18
I20
I27
I139
I122
I31
I18
I18
tp202
a(I16
I21
I27
I143
I126
I32
I20
I16
tp203
a(I17
I20
I27
I150
I126
I31
I19
I16
tp204
a(I15
I20
I27
I165
I147
I33
I18
I15
tp205
a(I17
I21
I30
I166
I147
I31
I17
I16
tp206
a(I16
I22
I26
I130
I113
I27
I17
I17
tp207
a(I16
I20
I24
I139
I120
I24
I16
I19
tp208
a(I14
I20
I26
I183
I180
I33
I16
I18
tp209
a(I15
I21
I29
I181
I172
I33
I17
I18
tp210
a(I13
I20
I26
I189
I178
I33
I18
I17
tp211
a(I14
I18
I26
I192
I182
I33
I18
I17
tp212
a(I15
I18
I27
I177
I170
I31
I16
I15
tp213
a(I16
I17
I24
I117
I102
I23
I17
I15
tp214
a(I16
I17
I21
I93
I88
I20
I16
I14
tp215
a(I16
I19
I20
I69
I80
I21
I17
I15
tp216
a(I16
I20
I21
I68
I89
I21
I16
I14
tp217
a(I15
I19
I20
I69
I89
I20
I16
I15
tp218
a(I15
I19
I20
I105
I125
I24
I14
I15
tp219
a(I15
I17
I21
I109
I127
I23
I15
I16
tp220
a(I16
I16
I22
I112
I124
I22
I14
I16
tp221
a(I16
I14
I20
I129
I122
I23
I16
I17
tp222
a(I16
I15
I19
I131
I119
I23
I17
I17
tp223
a(I16
I17
I18
I104
I80
I18
I18
I17
tp224
a(I16
I18
I17
I100
I69
I19
I17
I17
tp225
a(I18
I18
I19
I111
I91
I20
I17
I17
tp226
a(I18
I20
I22
I91
I89
I22
I16
I17
tp227
a(I19
I20
I24
I89
I88
I22
I15
I16
tp228
a(I19
I19
I26
I105
I103
I23
I15
I17
tp229
a(I18
I20
I28
I124
I129
I25
I15
I16
tp230
a(I15
I19
I27
I114
I117
I25
I16
I17
tp231
a(I16
I18
I24
I104
I109
I23
I17
I18
tp232
a(I14
I19
I26
I129
I117
I26
I17
I18
tp233
a(I13
I18
I24
I124
I113
I27
I17
I18
tp234
a(I14
I20
I24
I117
I92
I25
I17
I19
tp235
a(I16
I21
I26
I118
I92
I27
I18
I22
tp236
a(I16
I22
I27
I155
I114
I28
I17
I21
tp237
a(I17
I21
I27
I139
I110
I27
I19
I21
tp238
a(I19
I22
I28
I133
I99
I25
I19
I20
tp239
a(I18
I19
I28
I121
I111
I26
I20
I19
tp240
a(I18
I19
I26
I117
I110
I24
I19
I16
tp241
a(I18
I16
I25
I81
I92
I22
I18
I16
tp242
a(I19
I17
I25
I85
I93
I24
I17
I17
tp243
a(I19
I15
I23
I97
I97
I25
I16
I18
tp244
a(I19
I17
I23
I98
I74
I24
I16
I18
tp245
a(I17
I17
I24
I96
I77
I23
I15
I16
tp246
a(I19
I17
I24
I81
I77
I23
I15
I16
tp247
a(I17
I17
I24
I65
I73
I21
I15
I15
tp248
a(I16
I17
I24
I70
I73
I18
I14
I16
tp249
a(I16
I19
I23
I76
I78
I19
I15
I16
tp250
a(I17
I18
I22
I80
I70
I19
I16
I17
tp251
a(I15
I20
I19
I84
I86
I20
I16
I17
tp252
a(I15
I20
I20
I91
I90
I23
I15
I18
tp253
a(I16
I20
I21
I120
I100
I23
I18
I18
tp254
a(I15
I20
I21
I119
I96
I22
I17
I18
tp255
a(I15
I20
I21
I129
I109
I22
I17
I18
tp256
a(I16
I21
I27
I180
I155
I29
I19
I18
tp257
a(I16
I21
I26
I182
I161
I29
I20
I16
tp258
a(I15
I21
I25
I159
I154
I28
I17
I16
tp259
a(I16
I20
I27
I156
I153
I29
I18
I15
tp260
a(I16
I23
I29
I151
I145
I28
I18
I14
tp261
a(I16
I20
I24
I93
I81
I19
I16
I14
tp262
a(I15
I20
I24
I87
I75
I19
I16
I16
tp263
a(I16
I22
I27
I99
I112
I26
I16
I15
tp264
a(I16
I21
I25
I100
I117
I26
I17
I15
tp265
a(I16
I20
I23
I116
I126
I27
I16
I15
tp266
a(I16
I21
I23
I111
I125
I27
I16
I15
tp267
a(I16
I21
I22
I107
I117
I25
I14
I14
tp268
a(I17
I20
I20
I88
I77
I18
I17
I17
tp269
a(I16
I23
I23
I161
I138
I30
I19
I19
tp270
a(I16
I22
I27
I163
I141
I32
I19
I20
tp271
a(I17
I24
I28
I162
I139
I32
I18
I20
tp272
a(I16
I23
I29
I163
I140
I32
I19
I20
tp273
a(I16
I22
I30
I171
I145
I33
I16
I19
tp274
a(I16
I19
I27
I116
I97
I25
I12
I18
tp275
a(I17
I19
I24
I90
I77
I21
I12
I16
tp276
a(I16
I20
I23
I85
I76
I22
I12
I18
tp277
a(I16
I21
I23
I83
I75
I21
I12
I17
tp278
a(I17
I20
I20
I73
I72
I20
I13
I17
tp279
a(I18
I22
I20
I68
I58
I17
I13
I17
tp280
a(I17
I21
I21
I89
I83
I22
I13
I17
tp281
a(I17
I19
I22
I95
I88
I21
I13
I16
tp282
a(I17
I17
I25
I157
I115
I26
I13
I18
tp283
a(I17
I18
I27
I166
I123
I28
I12
I16
tp284
a(I16
I18
I27
I165
I122
I28
I14
I17
tp285
a(I16
I18
I26
I157
I107
I24
I15
I16
tp286
a(I16
I19
I25
I158
I103
I24
I16
I15
tp287
a(I16
I18
I23
I103
I75
I20
I16
I14
tp288
a(I16
I18
I23
I82
I54
I19
I16
I14
tp289
a(I16
I19
I25
I90
I58
I19
I15
I13
tp290
a(I16
I18
I24
I85
I66
I19
I15
I14
tp291
a(I15
I19
I24
I88
I73
I21
I15
I14
tp292
a(I15
I21
I25
I89
I76
I22
I17
I14
tp293
a(I15
I20
I24
I98
I81
I21
I18
I14
tp294
a(I15
I18
I25
I93
I84
I23
I20
I17
tp295
a(I16
I19
I27
I103
I109
I26
I19
I16
tp296
a(I16
I18
I26
I97
I113
I27
I19
I20
tp297
a(I17
I17
I25
I97
I108
I25
I17
I20
tp298
a(I18
I18
I25
I92
I113
I26
I16
I19
tp299
a(I18
I18
I24
I103
I119
I28
I13
I19
tp300
a(I17
I17
I23
I98
I102
I26
I13
I19
tp301
a(I17
I17
I24
I101
I100
I26
I13
I16
tp302
a(I17
I17
I24
I114
I102
I26
I16
I17
tp303
a(I14
I18
I25
I117
I94
I24
I16
I18
tp304
a(I16
I17
I25
I101
I77
I22
I16
I17
tp305
a(I17
I16
I25
I93
I58
I20
I16
I18
tp306
a(I15
I17
I24
I105
I68
I20
I17
I16
tp307
a(I14
I19
I24
I88
I69
I21
I16
I16
tp308
a(I14
I18
I23
I92
I76
I22
I16
I16
tp309
asS'stop'
p310
(lp311
(I124
I80
I101
I210
I280
I529
I354
I221
tp312
a(I130
I91
I93
I202
I277
I491
I306
I237
tp313
a(I118
I106
I82
I162
I288
I568
I298
I217
tp314
a(I126
I110
I71
I185
I314
I637
I312
I219
tp315
a(I127
I119
I70
I196
I286
I600
I390
I242
tp316
a(I127
I127
I79
I208
I330
I726
I397
I260
tp317
a(I120
I114
I79
I201
I332
I760
I418
I239
tp318
a(I107
I100
I86
I192
I311
I742
I406
I208
tp319
a(I109
I96
I86
I188
I322
I690
I417
I235
tp320
a(I96
I98
I89
I176
I316
I717
I335
I218
tp321
a(I96
I111
I84
I163
I297
I649
I320
I199
tp322
a(I100
I108
I80
I169
I286
I600
I329
I214
tp323
a(I119
I129
I72
I176
I301
I577
I329
I242
tp324
a(I128
I132
I70
I155
I264
I531
I318
I247
tp325
a(I138
I123
I69
I178
I291
I531
I378
I253
tp326
a(I133
I102
I71
I169
I265
I455
I384
I244
tp327
a(I125
I101
I75
I168
I264
I488
I369
I236
tp328
a(I118
I93
I83
I172
I245
I445
I373
I216
tp329
a(I99
I95
I85
I184
I274
I521
I357
I187
tp330
a(I96
I98
I96
I178
I231
I471
I320
I164
tp331
a(I110
I100
I97
I174
I218
I458
I321
I239
tp332
a(I120
I100
I99
I169
I212
I467
I301
I263
tp333
a(I112
I80
I92
I154
I217
I546
I374
I264
tp334
a(I109
I75
I90
I156
I203
I564
I358
I251
tp335
a(I97
I89
I91
I160
I282
I721
I359
I245
tp336
a(I92
I91
I101
I186
I298
I802
I340
I182
tp337
a(I89
I94
I100
I191
I319
I856
I384
I178
tp338
a(I91
I94
I97
I198
I326
I855
I318
I184
tp339
a(I94
I114
I100
I199
I321
I821
I348
I200
tp340
a(I98
I111
I93
I193
I313
I767
I347
I203
tp341
a(I90
I110
I85
I177
I306
I721
I371
I199
tp342
a(I108
I108
I90
I186
I307
I658
I341
I237
tp343
a(I115
I122
I101
I179
I297
I622
I347
I256
tp344
a(I127
I102
I96
I169
I303
I626
I333
I279
tp345
a(I144
I91
I101
I197
I278
I642
I402
I308
tp346
a(I146
I88
I95
I187
I268
I607
I459
I319
tp347
a(I130
I99
I91
I188
I299
I704
I528
I279
tp348
a(I124
I81
I84
I200
I296
I690
I553
I267
tp349
a(I117
I92
I88
I218
I288
I688
I562
I246
tp350
a(I113
I93
I78
I183
I299
I636
I572
I270
tp351
a(I116
I113
I85
I191
I316
I644
I527
I273
tp352
a(I130
I116
I90
I185
I268
I559
I466
I292
tp353
a(I135
I128
I87
I175
I265
I599
I444
I304
tp354
a(I147
I125
I91
I155
I259
I621
I460
I315
tp355
a(I153
I133
I87
I153
I218
I621
I381
I270
tp356
a(I149
I121
I92
I147
I197
I611
I388
I251
tp357
a(I159
I119
I91
I148
I223
I663
I404
I245
tp358
a(I152
I105
I94
I155
I234
I659
I402
I219
tp359
a(I136
I112
I116
I162
I242
I606
I398
I194
tp360
a(I122
I100
I120
I181
I309
I673
I381
I215
tp361
a(I135
I98
I111
I182
I306
I660
I392
I226
tp362
a(I111
I84
I115
I209
I358
I627
I372
I197
tp363
a(I122
I84
I114
I211
I382
I616
I383
I200
tp364
a(I126
I74
I89
I208
I374
I617
I360
I201
tp365
a(I132
I84
I93
I207
I337
I574
I431
I180
tp366
a(I121
I79
I94
I211
I339
I604
I401
I203
tp367
a(I123
I78
I84
I180
I270
I544
I383
I255
tp368
a(I121
I78
I79
I169
I223
I542
I346
I264
tp369
a(I118
I79
I86
I190
I231
I570
I392
I286
tp370
a(I122
I91
I81
I189
I220
I524
I319
I294
tp371
a(I123
I98
I89
I181
I211
I499
I322
I279
tp372
a(I112
I104
I102
I159
I215
I511
I350
I212
tp373
a(I115
I101
I121
I248
I239
I565
I367
I211
tp374
a(I111
I103
I116
I245
I247
I579
I325
I232
tp375
a(I110
I130
I115
I269
I219
I483
I277
I259
tp376
a(I90
I128
I105
I276
I242
I532
I289
I233
tp377
a(I99
I114
I102
I267
I242
I528
I325
I246
tp378
a(I108
I112
I78
I197
I229
I460
I299
I262
tp379
a(I126
I111
I81
I226
I269
I510
I325
I275
tp380
a(I128
I77
I83
I208
I286
I572
I376
I263
tp381
a(I133
I88
I85
I189
I279
I539
I367
I258
tp382
a(I135
I89
I89
I189
I280
I528
I359
I328
tp383
a(I121
I86
I82
I177
I277
I534
I347
I311
tp384
a(I111
I85
I93
I166
I253
I494
I335
I282
tp385
a(I109
I92
I96
I168
I236
I441
I283
I293
tp386
a(I113
I78
I93
I183
I221
I441
I238
I313
tp387
a(I108
I75
I96
I190
I227
I455
I264
I272
tp388
a(I111
I83
I99
I193
I222
I516
I273
I290
tp389
a(I103
I79
I89
I191
I222
I511
I269
I292
tp390
a(I132
I77
I87
I182
I222
I545
I291
I340
tp391
a(I133
I81
I92
I173
I197
I477
I316
I334
tp392
a(I134
I77
I86
I172
I223
I511
I270
I300
tp393
a(I136
I70
I83
I172
I239
I467
I270
I290
tp394
a(I135
I73
I88
I154
I224
I464
I267
I288
tp395
a(I129
I77
I87
I153
I226
I472
I250
I276
tp396
a(I131
I76
I90
I146
I226
I527
I238
I268
tp397
a(I136
I97
I102
I189
I167
I512
I225
I283
tp398
a(I113
I92
I103
I189
I153
I450
I207
I236
tp399
a(I101
I88
I101
I184
I146
I406
I206
I262
tp400
a(I108
I93
I87
I130
I167
I442
I231
I266
tp401
a(I112
I97
I86
I135
I172
I372
I209
I251
tp402
a(I95
I91
I82
I186
I227
I389
I315
I255
tp403
a(I106
I95
I84
I195
I236
I437
I352
I253
tp404
a(I131
I117
I79
I201
I250
I497
I361
I242
tp405
a(I131
I117
I94
I245
I249
I473
I366
I232
tp406
a(I131
I106
I94
I243
I258
I494
I413
I230
tp407
a(I136
I103
I97
I209
I218
I533
I358
I214
tp408
a(I128
I97
I104
I231
I223
I497
I336
I204
tp409
a(I108
I71
I107
I224
I214
I441
I349
I180
tp410
a(I111
I80
I99
I183
I201
I416
I381
I173
tp411
a(I103
I80
I97
I176
I204
I405
I387
I171
tp412
a(I103
I77
I93
I178
I206
I340
I384
I204
tp413
a(I108
I76
I83
I146
I199
I412
I383
I205
tp414
a(I118
I65
I73
I156
I216
I404
I340
I221
tp415
a(I123
I87
I75
I166
I241
I510
I345
I224
tp416
a(I127
I100
I77
I162
I240
I471
I363
I226
tp417
a(I124
I107
I76
I149
I247
I574
I363
I280
tp418
a(I127
I98
I84
I127
I215
I483
I360
I278
tp419
a(I129
I83
I89
I146
I212
I482
I330
I274
tp420
a(I128
I76
I90
I145
I197
I484
I343
I262
tp421
a(I152
I85
I87
I137
I175
I437
I346
I313
tp422
a(I148
I84
I83
I138
I151
I318
I315
I269
tp423
a(I140
I76
I101
I171
I223
I473
I346
I258
tp424
a(I130
I84
I96
I169
I260
I540
I369
I252
tp425
a(I129
I91
I108
I216
I284
I591
I351
I288
tp426
a(I115
I88
I115
I219
I301
I658
I358
I266
tp427
a(I126
I92
I111
I209
I308
I688
I359
I288
tp428
a(I125
I90
I86
I199
I256
I608
I332
I314
tp429
a(I129
I95
I88
I184
I216
I539
I311
I324
tp430
a(I137
I89
I82
I155
I213
I586
I372
I318
tp431
a(I125
I94
I75
I152
I208
I553
I358
I288
tp432
a(I115
I107
I80
I172
I221
I510
I390
I258
tp433
a(I115
I107
I83
I167
I232
I501
I397
I214
tp434
a(I114
I100
I87
I165
I234
I538
I407
I263
tp435
a(I117
I101
I74
I139
I217
I424
I360
I245
tp436
a(I115
I96
I81
I162
I221
I366
I343
I261
tp437
a(I114
I97
I98
I181
I226
I470
I300
I263
tp438
a(I112
I100
I107
I188
I237
I453
I345
I307
tp439
a(I118
I100
I103
I167
I220
I483
I367
I312
tp440
a(I147
I97
I105
I165
I231
I490
I358
I316
tp441
a(I170
I104
I103
I155
I227
I494
I419
I331
tp442
a(I180
I106
I83
I151
I235
I508
I429
I331
tp443
a(I180
I105
I74
I148
I230
I514
I376
I298
tp444
a(I180
I105
I70
I149
I241
I552
I371
I288
tp445
a(I151
I90
I58
I144
I191
I463
I406
I243
tp446
a(I171
I87
I59
I142
I189
I434
I354
I298
tp447
a(I167
I91
I62
I123
I178
I416
I397
I303
tp448
a(I165
I91
I60
I131
I217
I477
I400
I290
tp449
a(I183
I93
I62
I138
I212
I469
I407
I341
tp450
a(I191
I102
I63
I125
I224
I487
I392
I345
tp451
a(I162
I98
I68
I131
I262
I456
I367
I339
tp452
asS'forward'
p453
(lp454
(I101
I36
I63
I110
I172
I473
I133
I52
tp455
a(I83
I38
I64
I117
I205
I518
I118
I44
tp456
a(I81
I41
I61
I116
I206
I421
I123
I44
tp457
a(I99
I42
I59
I117
I203
I468
I140
I52
tp458
a(I133
I42
I66
I123
I193
I444
I152
I50
tp459
a(I142
I39
I56
I101
I205
I456
I170
I51
tp460
a(I142
I43
I55
I92
I191
I501
I182
I53
tp461
a(I147
I41
I74
I126
I186
I467
I187
I56
tp462
a(I139
I42
I80
I148
I204
I425
I197
I50
tp463
a(I130
I44
I77
I145
I216
I505
I219
I48
tp464
a(I109
I43
I76
I146
I212
I503
I210
I51
tp465
a(I106
I38
I75
I146
I203
I474
I207
I52
tp466
a(I115
I38
I58
I117
I198
I472
I200
I46
tp467
a(I110
I37
I51
I87
I180
I475
I181
I50
tp468
a(I103
I34
I53
I90
I210
I442
I156
I54
tp469
a(I100
I36
I52
I86
I195
I438
I152
I50
tp470
a(I101
I37
I54
I85
I214
I418
I151
I47
tp471
a(I95
I36
I53
I95
I214
I433
I183
I49
tp472
a(I103
I39
I53
I104
I276
I462
I178
I56
tp473
a(I102
I41
I54
I109
I256
I582
I174
I63
tp474
a(I102
I42
I58
I107
I276
I592
I178
I62
tp475
a(I105
I43
I63
I119
I251
I656
I181
I67
tp476
a(I102
I43
I66
I120
I254
I645
I146
I65
tp477
a(I101
I42
I69
I119
I192
I623
I146
I56
tp478
a(I86
I39
I71
I122
I175
I454
I146
I48
tp479
a(I105
I36
I67
I117
I139
I489
I167
I56
tp480
a(I104
I36
I63
I112
I161
I462
I174
I57
tp481
a(I132
I38
I61
I107
I175
I456
I176
I63
tp482
a(I128
I34
I59
I103
I164
I442
I175
I66
tp483
a(I123
I42
I58
I101
I175
I488
I171
I62
tp484
a(I107
I45
I67
I148
I181
I452
I153
I54
tp485
a(I124
I45
I67
I145
I168
I364
I139
I49
tp486
a(I88
I47
I64
I144
I153
I464
I201
I58
tp487
a(I87
I49
I62
I146
I178
I599
I260
I68
tp488
a(I93
I44
I58
I152
I172
I584
I292
I76
tp489
a(I117
I40
I58
I127
I169
I578
I293
I80
tp490
a(I94
I37
I57
I123
I165
I563
I309
I80
tp491
a(I92
I39
I64
I138
I161
I507
I275
I70
tp492
a(I99
I39
I66
I146
I145
I432
I227
I57
tp493
a(I122
I39
I67
I141
I176
I590
I198
I58
tp494
a(I106
I44
I58
I131
I228
I636
I195
I60
tp495
a(I130
I46
I62
I140
I249
I653
I177
I64
tp496
a(I135
I45
I61
I131
I242
I630
I175
I61
tp497
a(I131
I46
I57
I120
I238
I603
I166
I67
tp498
a(I128
I44
I61
I116
I213
I434
I169
I72
tp499
a(I129
I40
I65
I115
I190
I357
I163
I67
tp500
a(I106
I39
I63
I108
I192
I517
I182
I65
tp501
a(I116
I36
I59
I96
I206
I528
I197
I69
tp502
a(I136
I36
I61
I95
I204
I516
I225
I67
tp503
a(I122
I38
I59
I106
I209
I511
I208
I53
tp504
a(I136
I38
I59
I100
I183
I545
I224
I57
tp505
a(I137
I34
I58
I99
I165
I416
I203
I55
tp506
a(I137
I34
I57
I102
I155
I408
I183
I51
tp507
a(I120
I35
I57
I103
I153
I416
I195
I48
tp508
a(I116
I34
I56
I91
I169
I416
I197
I48
tp509
a(I112
I37
I53
I102
I180
I372
I191
I45
tp510
a(I115
I38
I51
I100
I168
I323
I208
I43
tp511
a(I97
I38
I50
I104
I161
I329
I236
I48
tp512
a(I111
I40
I53
I106
I155
I276
I199
I46
tp513
a(I125
I40
I51
I104
I131
I337
I193
I41
tp514
a(I109
I37
I49
I93
I142
I401
I228
I42
tp515
a(I113
I43
I56
I117
I218
I399
I214
I43
tp516
a(I127
I44
I62
I176
I250
I425
I189
I40
tp517
a(I113
I45
I60
I186
I292
I498
I197
I43
tp518
a(I93
I46
I58
I185
I294
I501
I210
I44
tp519
a(I94
I45
I67
I198
I282
I445
I169
I41
tp520
a(I106
I43
I77
I199
I251
I449
I189
I42
tp521
a(I113
I45
I75
I151
I237
I424
I188
I45
tp522
a(I114
I40
I73
I141
I184
I321
I188
I50
tp523
a(I115
I38
I75
I143
I209
I276
I183
I54
tp524
a(I135
I41
I68
I121
I202
I262
I179
I56
tp525
a(I130
I43
I51
I91
I204
I329
I175
I59
tp526
a(I136
I42
I57
I85
I201
I333
I207
I71
tp527
a(I209
I45
I60
I94
I223
I414
I214
I101
tp528
a(I218
I48
I63
I106
I199
I394
I239
I100
tp529
a(I208
I45
I64
I113
I207
I416
I252
I112
tp530
a(I208
I43
I58
I112
I192
I354
I238
I110
tp531
a(I210
I43
I53
I115
I186
I354
I205
I101
tp532
a(I192
I42
I57
I113
I165
I339
I209
I70
tp533
a(I193
I42
I56
I104
I167
I351
I202
I73
tp534
a(I194
I41
I53
I104
I158
I332
I190
I59
tp535
a(I196
I40
I55
I110
I137
I378
I189
I58
tp536
a(I187
I36
I51
I119
I178
I367
I196
I60
tp537
a(I159
I35
I67
I118
I181
I397
I187
I61
tp538
a(I147
I38
I70
I123
I181
I388
I161
I57
tp539
a(I190
I39
I69
I129
I229
I397
I176
I57
tp540
a(I190
I40
I70
I129
I239
I361
I176
I58
tp541
a(I183
I42
I76
I120
I223
I425
I212
I63
tp542
a(I188
I41
I57
I116
I222
I400
I211
I64
tp543
a(I187
I37
I51
I110
I216
I413
I205
I65
tp544
a(I164
I44
I64
I119
I209
I476
I197
I69
tp545
a(I158
I42
I64
I118
I208
I478
I208
I73
tp546
a(I154
I44
I77
I140
I192
I439
I163
I68
tp547
a(I114
I47
I84
I154
I199
I445
I174
I71
tp548
a(I126
I49
I86
I155
I209
I428
I197
I74
tp549
a(I90
I43
I78
I141
I168
I362
I183
I67
tp550
a(I106
I41
I79
I149
I164
I361
I175
I66
tp551
a(I145
I43
I63
I127
I169
I364
I174
I70
tp552
a(I144
I39
I56
I109
I160
I362
I146
I60
tp553
a(I145
I39
I63
I119
I168
I467
I153
I59
tp554
a(I204
I43
I63
I120
I190
I498
I157
I82
tp555
a(I291
I43
I71
I116
I188
I489
I149
I106
tp556
a(I283
I37
I72
I112
I181
I462
I165
I106
tp557
a(I292
I46
I71
I112
I171
I450
I174
I112
tp558
a(I289
I42
I64
I100
I153
I422
I145
I113
tp559
a(I255
I39
I76
I110
I138
I359
I143
I97
tp560
a(I143
I39
I71
I123
I149
I361
I140
I68
tp561
a(I168
I43
I69
I135
I159
I451
I141
I70
tp562
a(I158
I38
I66
I130
I162
I471
I133
I72
tp563
a(I174
I42
I70
I134
I174
I403
I137
I69
tp564
a(I168
I42
I62
I135
I182
I404
I148
I70
tp565
a(I171
I45
I61
I141
I210
I404
I179
I79
tp566
a(I127
I43
I58
I129
I204
I353
I174
I80
tp567
a(I132
I40
I58
I142
I220
I359
I200
I75
tp568
a(I181
I38
I71
I163
I215
I385
I214
I81
tp569
a(I192
I39
I73
I164
I217
I383
I202
I81
tp570
a(I190
I37
I70
I145
I197
I426
I181
I74
tp571
a(I196
I36
I84
I168
I204
I446
I177
I67
tp572
a(I190
I39
I90
I173
I197
I404
I151
I60
tp573
a(I140
I40
I84
I154
I192
I388
I124
I55
tp574
a(I126
I39
I78
I144
I175
I400
I127
I51
tp575
a(I124
I42
I85
I158
I187
I469
I214
I59
tp576
a(I176
I47
I72
I136
I183
I464
I234
I71
tp577
a(I185
I46
I67
I118
I193
I453
I231
I71
tp578
a(I188
I46
I61
I127
I242
I445
I230
I67
tp579
a(I186
I49
I70
I132
I239
I442
I232
I75
tp580
a(I183
I50
I64
I119
I231
I391
I164
I73
tp581
a(I166
I46
I65
I118
I243
I450
I130
I73
tp582
a(I180
I45
I63
I115
I231
I438
I135
I77
tp583
a(I177
I43
I66
I120
I185
I446
I147
I80
tp584
a(I224
I39
I58
I119
I218
I513
I148
I79
tp585
a(I222
I36
I58
I118
I263
I565
I147
I77
tp586
a(I210
I46
I96
I204
I257
I475
I154
I69
tp587
a(I195
I45
I97
I211
I252
I473
I161
I70
tp588
a(I188
I49
I99
I206
I267
I492
I168
I67
tp589
a(I164
I49
I101
I210
I250
I485
I171
I68
tp590
a(I170
I53
I105
I222
I237
I472
I164
I70
tp591
a(I164
I45
I72
I143
I225
I480
I191
I71
tp592
a(I156
I45
I69
I141
I256
I498
I209
I78
tp593
a(I155
I45
I82
I148
I247
I524
I205
I86
tp594
a(I145
I44
I80
I134
I236
I502
I198
I83
tp595
a(I164
I37
I77
I114
I183
I433
I190
I87
tp596
a(I168
I35
I77
I123
I198
I462
I170
I90
tp597
a(I176
I38
I80
I123
I183
I494
I140
I79
tp598
a(I219
I36
I64
I108
I172
I444
I143
I92
tp599
a(I206
I41
I64
I113
I178
I471
I147
I90
tp600
a(I183
I39
I58
I103
I173
I452
I160
I82
tp601
a(I167
I42
I56
I91
I173
I422
I143
I74
tp602
a(I158
I41
I47
I86
I163
I388
I156
I76
tp603
a(I101
I42
I49
I90
I175
I478
I150
I48
tp604
a(I99
I40
I53
I101
I180
I451
I161
I45
tp605
a(I152
I42
I61
I137
I197
I465
I173
I38
tp606
asS'backward'
p607
(lp608
(I957
I144
I43
I66
I178
I184
I100
I349
tp609
a(I1062
I179
I47
I68
I179
I182
I114
I362
tp610
a(I1021
I185
I46
I74
I194
I181
I107
I349
tp611
a(I1088
I191
I43
I76
I180
I116
I99
I364
tp612
a(I950
I191
I40
I71
I158
I111
I91
I353
tp613
a(I1061
I205
I44
I61
I145
I112
I94
I385
tp614
a(I911
I165
I40
I60
I143
I107
I82
I301
tp615
a(I959
I171
I39
I54
I133
I132
I102
I303
tp616
a(I962
I176
I38
I43
I129
I142
I123
I308
tp617
a(I998
I158
I39
I42
I134
I159
I133
I311
tp618
a(I979
I146
I40
I46
I175
I158
I143
I344
tp619
a(I988
I147
I37
I49
I182
I165
I147
I324
tp620
a(I927
I174
I38
I51
I185
I139
I133
I315
tp621
a(I896
I170
I38
I50
I188
I207
I122
I303
tp622
a(I867
I170
I39
I50
I181
I203
I114
I304
tp623
a(I764
I176
I34
I46
I141
I200
I106
I199
tp624
a(I659
I188
I35
I44
I133
I198
I104
I192
tp625
a(I754
I157
I36
I42
I128
I199
I102
I214
tp626
a(I761
I167
I39
I42
I114
I129
I98
I247
tp627
a(I814
I181
I40
I60
I190
I148
I118
I281
tp628
a(I817
I167
I40
I59
I200
I151
I112
I282
tp629
a(I758
I143
I46
I60
I208
I151
I105
I272
tp630
a(I720
I182
I48
I61
I214
I155
I111
I260
tp631
a(I711
I166
I47
I61
I213
I143
I110
I216
tp632
a(I702
I145
I45
I44
I179
I122
I92
I184
tp633
a(I695
I153
I46
I54
I182
I123
I89
I188
tp634
a(I743
I164
I39
I55
I187
I132
I88
I210
tp635
a(I751
I130
I34
I53
I195
I142
I90
I214
tp636
a(I708
I122
I33
I54
I213
I159
I82
I221
tp637
a(I647
I127
I34
I52
I190
I160
I74
I207
tp638
a(I773
I133
I36
I49
I183
I161
I89
I255
tp639
a(I760
I125
I37
I48
I168
I150
I88
I247
tp640
a(I765
I150
I48
I62
I161
I155
I91
I268
tp641
a(I831
I164
I52
I65
I139
I148
I96
I263
tp642
a(I888
I172
I52
I64
I146
I148
I100
I267
tp643
a(I826
I175
I51
I58
I141
I144
I94
I230
tp644
a(I877
I176
I52
I67
I170
I167
I99
I256
tp645
a(I853
I147
I44
I53
I156
I150
I95
I214
tp646
a(I804
I162
I42
I49
I176
I147
I94
I223
tp647
a(I738
I157
I42
I52
I184
I152
I93
I232
tp648
a(I679
I150
I41
I52
I192
I154
I90
I217
tp649
a(I698
I148
I46
I47
I179
I135
I83
I206
tp650
a(I680
I144
I44
I51
I191
I144
I76
I231
tp651
a(I674
I120
I42
I53
I179
I145
I81
I224
tp652
a(I807
I167
I45
I58
I166
I135
I110
I229
tp653
a(I893
I174
I43
I61
I170
I155
I120
I270
tp654
a(I851
I184
I35
I57
I172
I204
I134
I257
tp655
a(I957
I189
I38
I55
I176
I203
I154
I246
tp656
a(I981
I180
I39
I55
I175
I209
I161
I287
tp657
a(I855
I146
I39
I47
I167
I207
I142
I273
tp658
a(I875
I197
I41
I48
I178
I200
I134
I248
tp659
a(I888
I193
I46
I47
I174
I162
I130
I254
tp660
a(I780
I187
I44
I45
I158
I161
I107
I251
tp661
a(I702
I191
I44
I43
I161
I145
I100
I201
tp662
a(I732
I187
I46
I47
I176
I161
I103
I196
tp663
a(I636
I115
I43
I39
I145
I147
I99
I195
tp664
a(I603
I130
I42
I43
I136
I137
I104
I194
tp665
a(I599
I140
I45
I47
I149
I136
I106
I186
tp666
a(I643
I150
I45
I46
I156
I132
I97
I213
tp667
a(I596
I145
I46
I44
I153
I114
I95
I212
tp668
a(I686
I169
I46
I49
I167
I116
I101
I225
tp669
a(I749
I160
I43
I54
I164
I109
I80
I224
tp670
a(I696
I157
I41
I53
I147
I95
I74
I217
tp671
a(I699
I157
I40
I54
I142
I121
I87
I206
tp672
a(I738
I163
I38
I55
I163
I123
I95
I225
tp673
a(I592
I140
I38
I54
I157
I130
I90
I193
tp674
a(I492
I129
I38
I45
I158
I131
I92
I206
tp675
a(I536
I122
I38
I44
I175
I130
I93
I224
tp676
a(I559
I111
I36
I44
I162
I110
I87
I219
tp677
a(I626
I141
I36
I39
I139
I102
I84
I222
tp678
a(I830
I177
I35
I43
I137
I109
I87
I267
tp679
a(I982
I226
I43
I47
I143
I128
I91
I317
tp680
a(I1009
I233
I42
I46
I155
I150
I94
I314
tp681
a(I1025
I235
I42
I46
I173
I292
I87
I311
tp682
a(I1009
I221
I43
I50
I186
I359
I82
I303
tp683
a(I1043
I202
I46
I46
I197
I371
I94
I342
tp684
a(I946
I160
I41
I43
I200
I375
I91
I291
tp685
a(I921
I169
I43
I44
I180
I374
I90
I285
tp686
a(I919
I168
I42
I46
I167
I285
I92
I275
tp687
a(I866
I165
I37
I42
I161
I209
I90
I260
tp688
a(I650
I158
I35
I47
I142
I182
I78
I149
tp689
a(I607
I151
I37
I49
I141
I162
I95
I148
tp690
a(I577
I124
I35
I49
I146
I147
I97
I146
tp691
a(I525
I133
I36
I48
I180
I150
I95
I161
tp692
a(I716
I122
I37
I48
I174
I143
I91
I204
tp693
a(I697
I116
I35
I42
I176
I160
I90
I211
tp694
a(I787
I122
I34
I42
I178
I175
I89
I223
tp695
a(I803
I137
I35
I43
I215
I196
I84
I221
tp696
a(I818
I136
I36
I40
I201
I204
I89
I227
tp697
a(I706
I152
I36
I46
I197
I242
I89
I223
tp698
a(I744
I162
I37
I49
I206
I269
I86
I229
tp699
a(I667
I152
I34
I47
I206
I275
I92
I259
tp700
a(I677
I147
I35
I44
I165
I265
I96
I266
tp701
a(I690
I145
I35
I44
I153
I256
I92
I272
tp702
a(I669
I134
I33
I40
I163
I219
I90
I254
tp703
a(I657
I135
I34
I36
I163
I170
I102
I244
tp704
a(I640
I136
I35
I40
I160
I141
I91
I192
tp705
a(I616
I130
I32
I39
I156
I127
I92
I183
tp706
a(I721
I145
I32
I48
I170
I114
I94
I207
tp707
a(I796
I146
I35
I48
I170
I104
I93
I210
tp708
a(I780
I130
I33
I52
I175
I107
I87
I211
tp709
a(I761
I136
I36
I52
I184
I111
I79
I215
tp710
a(I798
I135
I37
I52
I198
I124
I87
I217
tp711
a(I694
I129
I40
I48
I189
I226
I87
I194
tp712
a(I602
I141
I38
I47
I176
I229
I100
I195
tp713
a(I589
I148
I40
I43
I184
I246
I94
I196
tp714
a(I691
I144
I36
I40
I175
I243
I90
I201
tp715
a(I710
I149
I36
I40
I158
I239
I92
I210
tp716
a(I744
I130
I32
I39
I175
I149
I89
I200
tp717
a(I765
I130
I30
I37
I180
I150
I81
I190
tp718
a(I757
I123
I31
I38
I157
I118
I79
I183
tp719
a(I666
I142
I34
I47
I188
I153
I95
I171
tp720
a(I707
I148
I36
I49
I208
I157
I93
I190
tp721
a(I664
I153
I36
I52
I199
I180
I94
I186
tp722
a(I602
I141
I36
I53
I197
I256
I89
I181
tp723
a(I714
I158
I35
I54
I192
I253
I92
I222
tp724
a(I726
I138
I32
I49
I184
I251
I78
I220
tp725
a(I614
I135
I29
I47
I173
I274
I62
I193
tp726
a(I742
I138
I32
I49
I177
I264
I75
I206
tp727
a(I759
I130
I34
I49
I181
I185
I80
I214
tp728
a(I735
I107
I35
I56
I217
I189
I75
I178
tp729
a(I737
I134
I35
I54
I192
I170
I71
I189
tp730
a(I746
I142
I34
I52
I185
I199
I74
I185
tp731
a(I702
I151
I36
I46
I177
I230
I81
I184
tp732
a(I715
I154
I39
I48
I184
I244
I83
I181
tp733
a(I632
I165
I38
I36
I138
I247
I88
I173
tp734
a(I710
I149
I38
I44
I169
I252
I100
I170
tp735
a(I821
I138
I39
I53
I182
I209
I97
I186
tp736
a(I733
I121
I36
I55
I184
I285
I90
I163
tp737
a(I750
I124
I31
I52
I174
I277
I83
I175
tp738
a(I777
I119
I34
I54
I176
I281
I79
I193
tp739
a(I712
I123
I34
I48
I169
I291
I74
I174
tp740
a(I612
I122
I34
I42
I161
I337
I107
I157
tp741
a(I587
I119
I32
I44
I154
I244
I99
I153
tp742
a(I711
I113
I34
I44
I149
I286
I101
I186
tp743
a(I747
I123
I35
I44
I176
I279
I109
I176
tp744
a(I726
I118
I38
I49
I173
I268
I103
I187
tp745
a(I790
I138
I39
I46
I164
I213
I71
I205
tp746
a(I792
I139
I40
I40
I156
I217
I72
I207
tp747
a(I677
I147
I42
I46
I175
I157
I73
I177
tp748
a(I813
I134
I40
I47
I167
I164
I68
I228
tp749
a(I796
I131
I40
I40
I167
I164
I72
I226
tp750
a(I786
I110
I47
I54
I200
I160
I79
I280
tp751
a(I860
I114
I47
I58
I205
I161
I79
I292
tp752
a(I891
I107
I44
I53
I199
I177
I86
I304
tp753
a(I756
I105
I44
I49
I182
I166
I77
I263
tp754
a(I763
I100
I43
I52
I180
I170
I73
I263
tp755
a(I683
I122
I41
I39
I141
I239
I63
I204
tp756
a(I631
I146
I42
I35
I149
I254
I76
I203
tp757
a(I629
I147
I43
I41
I142
I245
I68
I187
tp758
a(I616
I146
I42
I45
I150
I254
I70
I193
tp759
a(I654
I144
I43
I53
I144
I255
I69
I201
tp760
asS'left'
p761
(lp762
(I267
I94
I89
I246
I224
I182
I58
I68
tp763
a(I197
I88
I93
I249
I229
I192
I61
I67
tp764
a(I193
I77
I91
I238
I219
I192
I61
I69
tp765
a(I270
I107
I96
I217
I218
I173
I53
I72
tp766
a(I250
I106
I95
I208
I225
I209
I53
I70
tp767
a(I251
I106
I82
I205
I214
I191
I57
I65
tp768
a(I261
I106
I75
I210
I220
I181
I51
I64
tp769
a(I281
I110
I83
I231
I211
I189
I51
I63
tp770
a(I246
I83
I78
I231
I220
I192
I56
I61
tp771
a(I230
I70
I79
I233
I233
I225
I58
I59
tp772
a(I237
I74
I81
I233
I259
I234
I60
I62
tp773
a(I256
I82
I98
I226
I268
I235
I63
I63
tp774
a(I250
I88
I98
I221
I280
I231
I66
I65
tp775
a(I278
I95
I117
I240
I292
I234
I65
I64
tp776
a(I284
I98
I124
I240
I278
I179
I64
I54
tp777
a(I273
I93
I130
I261
I262
I178
I67
I54
tp778
a(I245
I85
I128
I306
I261
I170
I64
I53
tp779
a(I240
I83
I123
I310
I262
I177
I58
I52
tp780
a(I213
I107
I107
I303
I234
I177
I57
I57
tp781
a(I208
I106
I97
I304
I235
I170
I58
I61
tp782
a(I216
I106
I90
I281
I241
I158
I63
I56
tp783
a(I215
I106
I70
I217
I202
I235
I65
I57
tp784
a(I199
I97
I68
I194
I207
I239
I66
I54
tp785
a(I191
I67
I63
I167
I212
I242
I65
I50
tp786
a(I245
I72
I65
I166
I243
I244
I65
I48
tp787
a(I239
I77
I62
I171
I231
I242
I52
I48
tp788
a(I238
I81
I68
I208
I280
I176
I54
I53
tp789
a(I246
I81
I73
I215
I271
I197
I66
I51
tp790
a(I216
I81
I84
I266
I300
I226
I73
I51
tp791
a(I144
I74
I84
I280
I279
I228
I71
I51
tp792
a(I165
I73
I90
I276
I281
I225
I75
I50
tp793
a(I190
I91
I93
I253
I241
I222
I77
I45
tp794
a(I185
I98
I89
I244
I240
I187
I72
I43
tp795
a(I177
I92
I82
I218
I238
I138
I68
I44
tp796
a(I182
I92
I91
I207
I248
I207
I71
I43
tp797
a(I234
I105
I88
I210
I267
I215
I69
I46
tp798
a(I220
I91
I83
I197
I275
I218
I70
I46
tp799
a(I213
I83
I82
I205
I269
I226
I66
I55
tp800
a(I206
I83
I83
I204
I250
I221
I62
I50
tp801
a(I222
I83
I72
I200
I249
I154
I67
I48
tp802
a(I166
I68
I73
I190
I239
I143
I65
I52
tp803
a(I178
I64
I75
I218
I241
I254
I61
I57
tp804
a(I183
I66
I78
I219
I259
I254
I63
I52
tp805
a(I185
I63
I92
I248
I270
I256
I64
I56
tp806
a(I177
I66
I98
I257
I307
I322
I61
I60
tp807
a(I164
I60
I105
I303
I347
I332
I70
I57
tp808
a(I142
I58
I108
I298
I341
I275
I67
I53
tp809
a(I147
I65
I106
I304
I331
I278
I67
I57
tp810
a(I178
I70
I93
I273
I312
I277
I66
I55
tp811
a(I191
I71
I105
I283
I275
I193
I64
I56
tp812
a(I183
I71
I102
I274
I215
I185
I60
I53
tp813
a(I186
I76
I97
I265
I229
I239
I61
I57
tp814
a(I217
I76
I110
I273
I245
I240
I61
I60
tp815
a(I218
I83
I110
I268
I243
I244
I62
I65
tp816
a(I217
I84
I100
I256
I244
I241
I58
I60
tp817
a(I225
I87
I90
I241
I227
I239
I54
I61
tp818
a(I241
I85
I92
I240
I236
I175
I53
I64
tp819
a(I214
I91
I78
I254
I228
I164
I50
I56
tp820
a(I201
I91
I82
I254
I221
I165
I52
I56
tp821
a(I180
I90
I76
I239
I220
I238
I58
I55
tp822
a(I202
I96
I86
I228
I261
I241
I58
I55
tp823
a(I195
I101
I81
I215
I227
I222
I59
I45
tp824
a(I190
I94
I89
I201
I234
I224
I58
I51
tp825
a(I180
I85
I112
I288
I273
I224
I61
I48
tp826
a(I253
I138
I126
I328
I315
I158
I59
I65
tp827
a(I240
I136
I118
I323
I293
I154
I64
I68
tp828
a(I254
I139
I126
I326
I298
I185
I65
I70
tp829
a(I276
I140
I119
I307
I284
I224
I70
I66
tp830
a(I304
I182
I104
I239
I288
I239
I72
I68
tp831
a(I242
I144
I95
I192
I235
I238
I74
I51
tp832
a(I234
I140
I99
I205
I250
I244
I66
I47
tp833
a(I219
I134
I95
I210
I260
I226
I68
I45
tp834
a(I208
I130
I98
I223
I271
I183
I66
I45
tp835
a(I183
I61
I88
I222
I241
I158
I60
I42
tp836
a(I188
I56
I82
I253
I275
I148
I51
I40
tp837
a(I183
I55
I78
I242
I273
I202
I64
I40
tp838
a(I266
I62
I75
I235
I262
I196
I65
I45
tp839
a(I261
I65
I71
I218
I254
I210
I64
I43
tp840
a(I268
I68
I67
I198
I235
I213
I65
I38
tp841
a(I266
I68
I66
I166
I196
I216
I69
I47
tp842
a(I266
I79
I79
I175
I211
I150
I64
I51
tp843
a(I213
I72
I82
I209
I249
I153
I74
I58
tp844
a(I225
I70
I85
I210
I241
I128
I72
I59
tp845
a(I213
I68
I86
I224
I255
I138
I70
I62
tp846
a(I214
I66
I88
I219
I256
I132
I72
I59
tp847
a(I216
I64
I84
I215
I239
I143
I68
I58
tp848
a(I206
I69
I87
I199
I202
I141
I58
I55
tp849
a(I193
I70
I86
I198
I203
I140
I54
I56
tp850
a(I177
I72
I86
I176
I195
I120
I66
I53
tp851
a(I178
I80
I87
I189
I236
I120
I61
I51
tp852
a(I204
I82
I81
I176
I221
I187
I62
I56
tp853
a(I227
I80
I90
I176
I252
I192
I61
I50
tp854
a(I220
I77
I91
I183
I264
I207
I65
I48
tp855
a(I216
I78
I98
I220
I265
I211
I55
I55
tp856
a(I225
I73
I94
I219
I250
I217
I63
I62
tp857
a(I217
I67
I100
I256
I284
I171
I63
I56
tp858
a(I181
I63
I84
I256
I263
I163
I65
I59
tp859
a(I186
I69
I86
I268
I267
I155
I65
I63
tp860
a(I194
I74
I74
I245
I294
I198
I71
I65
tp861
a(I190
I73
I71
I226
I281
I216
I65
I64
tp862
a(I191
I73
I68
I214
I260
I217
I66
I63
tp863
a(I175
I77
I75
I205
I266
I222
I61
I57
tp864
a(I167
I71
I68
I185
I248
I221
I64
I60
tp865
a(I171
I65
I71
I187
I215
I184
I60
I60
tp866
a(I189
I64
I73
I200
I225
I159
I63
I67
tp867
a(I168
I64
I99
I234
I226
I142
I61
I71
tp868
a(I159
I58
I97
I238
I248
I142
I68
I71
tp869
a(I159
I63
I98
I235
I273
I240
I62
I67
tp870
a(I155
I71
I110
I251
I275
I254
I60
I64
tp871
a(I129
I73
I108
I248
I268
I251
I53
I46
tp872
a(I151
I72
I88
I259
I289
I256
I56
I49
tp873
a(I155
I76
I93
I278
I282
I256
I56
I54
tp874
a(I146
I73
I97
I285
I260
I155
I57
I53
tp875
a(I146
I66
I90
I269
I271
I134
I62
I50
tp876
a(I132
I70
I106
I291
I300
I163
I69
I52
tp877
a(I115
I76
I124
I310
I344
I207
I69
I46
tp878
a(I115
I77
I133
I302
I337
I221
I68
I42
tp879
a(I125
I86
I135
I318
I396
I232
I71
I41
tp880
a(I118
I86
I149
I348
I398
I236
I70
I46
tp881
a(I169
I80
I139
I330
I369
I224
I72
I58
tp882
a(I186
I78
I123
I260
I298
I248
I71
I57
tp883
a(I188
I85
I111
I264
I321
I243
I67
I56
tp884
a(I193
I80
I108
I244
I250
I254
I73
I61
tp885
a(I247
I80
I78
I196
I253
I266
I80
I63
tp886
a(I289
I89
I77
I193
I265
I264
I80
I55
tp887
a(I285
I85
I74
I192
I265
I198
I79
I57
tp888
a(I286
I79
I64
I161
I239
I190
I79
I61
tp889
a(I288
I78
I58
I143
I239
I169
I73
I56
tp890
a(I250
I80
I63
I159
I225
I143
I62
I54
tp891
a(I178
I79
I73
I173
I206
I130
I53
I52
tp892
a(I211
I78
I69
I184
I212
I135
I72
I57
tp893
a(I216
I74
I88
I228
I199
I121
I72
I52
tp894
a(I210
I73
I95
I242
I209
I112
I69
I51
tp895
a(I204
I78
I97
I242
I199
I108
I66
I47
tp896
a(I191
I75
I88
I225
I212
I122
I68
I48
tp897
a(I186
I73
I91
I236
I226
I113
I46
I42
tp898
a(I218
I69
I77
I207
I232
I122
I48
I47
tp899
a(I215
I69
I73
I208
I229
I126
I48
I46
tp900
a(I231
I69
I66
I210
I289
I126
I50
I47
tp901
a(I241
I63
I79
I299
I350
I133
I61
I44
tp902
a(I221
I63
I82
I302
I365
I233
I63
I44
tp903
a(I184
I62
I82
I296
I354
I243
I68
I39
tp904
a(I165
I60
I86
I299
I312
I246
I70
I45
tp905
a(I160
I65
I92
I225
I241
I240
I59
I52
tp906
a(I140
I74
I86
I194
I207
I230
I65
I58
tp907
a(I131
I78
I88
I197
I202
I219
I55
I59
tp908
a(I131
I80
I89
I204
I201
I234
I55
I58
tp909
a(I165
I80
I98
I213
I194
I232
I56
I59
tp910
a(I170
I74
I84
I201
I177
I235
I57
I59
tp911
a(I171
I69
I87
I203
I181
I164
I59
I57
tp912
a(I171
I65
I89
I219
I198
I160
I58
I53
tp913
as.